GAS LISTING /tmp/ccTy7YVh.s 			page 1


   1              		.file	"_sem.cpp"
   2              		.option pic
   3              		.option norelax
   4              		.text
   5              	.Ltext0:
   6              		.align	2
   7              		.globl	_ZN4_sem4waitEv
   9              	_ZN4_sem4waitEv:
  10              	.LFB42:
  11              		.file 1 "src/_sem.cpp"
   1:src/_sem.cpp  **** //
   2:src/_sem.cpp  **** // Created by DjordjeS on 24.7.2022.
   3:src/_sem.cpp  **** //
   4:src/_sem.cpp  **** 
   5:src/_sem.cpp  **** #include "../h/_sem.hpp"
   6:src/_sem.cpp  **** 
   7:src/_sem.cpp  **** _sem::~_sem() {
   8:src/_sem.cpp  ****     this->close();
   9:src/_sem.cpp  **** }
  10:src/_sem.cpp  **** 
  11:src/_sem.cpp  **** int _sem::wait (){
  12              		.loc 1 11 18
  13              		.cfi_startproc
  14              	.LVL0:
  12:src/_sem.cpp  ****     if(active==false){
  15              		.loc 1 12 5
  16              		.loc 1 12 8 is_stmt 0
  17 0000 83474500 		lbu	a5,4(a0)
  18              		.loc 1 12 5
  19 0004 638C070A 		beqz	a5,.L6
  11:src/_sem.cpp  ****     if(active==false){
  20              		.loc 1 11 18
  21 0008 130101FD 		addi	sp,sp,-48
  22              		.cfi_def_cfa_offset 48
  23 000c 23341102 		sd	ra,40(sp)
  24 0010 23308102 		sd	s0,32(sp)
  25 0014 233C9100 		sd	s1,24(sp)
  26 0018 23382101 		sd	s2,16(sp)
  27 001c 23343101 		sd	s3,8(sp)
  28              		.cfi_offset 1, -8
  29              		.cfi_offset 8, -16
  30              		.cfi_offset 9, -24
  31              		.cfi_offset 18, -32
  32              		.cfi_offset 19, -40
  33 0020 13040103 		addi	s0,sp,48
  34              		.cfi_def_cfa 8, 0
  35 0024 93040500 		mv	s1,a0
  13:src/_sem.cpp  ****         return -4;
  14:src/_sem.cpp  ****     }
  15:src/_sem.cpp  ****     if(--val<0){
  36              		.loc 1 15 5 is_stmt 1
  37              		.loc 1 15 10 is_stmt 0
  38 0028 83270500 		lw	a5,0(a0)
  39              		.loc 1 15 8
  40 002c 9B87F7FF 		addiw	a5,a5,-1
  41              		.loc 1 15 13
  42 0030 2320F500 		sw	a5,0(a0)
GAS LISTING /tmp/ccTy7YVh.s 			page 2


  43              		.loc 1 15 5
  44 0034 13970702 		slli	a4,a5,32
  45 0038 63460702 		bltz	a4,.L12
  46              	.LVL1:
  47              	.L3:
  16:src/_sem.cpp  ****         blocked.addLast(TCB::running);
  17:src/_sem.cpp  ****         TCB::block();
  18:src/_sem.cpp  ****     }
  19:src/_sem.cpp  **** 
  20:src/_sem.cpp  ****     if(active==true){
  48              		.loc 1 20 5 is_stmt 1
  49              		.loc 1 20 8 is_stmt 0
  50 003c 83C74400 		lbu	a5,4(s1)
  51              		.loc 1 20 5
  52 0040 63820708 		beqz	a5,.L7
  21:src/_sem.cpp  ****         return 0;
  53              		.loc 1 21 16
  54 0044 13050000 		li	a0,0
  55              	.L2:
  22:src/_sem.cpp  ****     }
  23:src/_sem.cpp  ****     else{
  24:src/_sem.cpp  ****         //slucaj kada je semafor dealociran dok je pozivajuca nit na njemu cekala
  25:src/_sem.cpp  ****         return -8;
  26:src/_sem.cpp  ****     }
  27:src/_sem.cpp  **** }
  56              		.loc 1 27 1
  57 0048 83308102 		ld	ra,40(sp)
  58              		.cfi_remember_state
  59              		.cfi_restore 1
  60 004c 03340102 		ld	s0,32(sp)
  61              		.cfi_restore 8
  62              		.cfi_def_cfa 2, 48
  63 0050 83348101 		ld	s1,24(sp)
  64              		.cfi_restore 9
  65              	.LVL2:
  66 0054 03390101 		ld	s2,16(sp)
  67              		.cfi_restore 18
  68 0058 83398100 		ld	s3,8(sp)
  69              		.cfi_restore 19
  70 005c 13010103 		addi	sp,sp,48
  71              		.cfi_def_cfa_offset 0
  72 0060 67800000 		jr	ra
  73              	.LVL3:
  74              	.L12:
  75              		.cfi_restore_state
  16:src/_sem.cpp  ****         TCB::block();
  76              		.loc 1 16 9 is_stmt 1
  16:src/_sem.cpp  ****         TCB::block();
  77              		.loc 1 16 24 is_stmt 0
  78 0064 13098500 		addi	s2,a0,8
  79 0068 97070000 		la	a5,_ZN3TCB7runningE
  79      83B70700 
  80 0070 83B90700 		ld	s3,0(a5)
  81              	.LVL4:
  82              	.LBB19:
  83              	.LBB20:
  84              	.LBB21:
GAS LISTING /tmp/ccTy7YVh.s 			page 3


  85              	.LBB22:
  86              		.file 2 "src/../h/../h/list.hpp"
   1:src/../h/../h/list.hpp **** //
   2:src/../h/../h/list.hpp **** // Created by DjordjeS on 20.7.2022.
   3:src/../h/../h/list.hpp **** //
   4:src/../h/../h/list.hpp **** 
   5:src/../h/../h/list.hpp **** #ifndef OS1_VEZBE07_RISCV_CONTEXT_SWITCH_2_INTERRUPT_LIST_HPP
   6:src/../h/../h/list.hpp **** #define OS1_VEZBE07_RISCV_CONTEXT_SWITCH_2_INTERRUPT_LIST_HPP
   7:src/../h/../h/list.hpp **** 
   8:src/../h/../h/list.hpp **** #include "../lib/hw.h"
   9:src/../h/../h/list.hpp **** #include "../lib/mem.h"
  10:src/../h/../h/list.hpp **** 
  11:src/../h/../h/list.hpp **** template<typename T>
  12:src/../h/../h/list.hpp **** class List
  13:src/../h/../h/list.hpp **** {
  14:src/../h/../h/list.hpp **** protected:
  15:src/../h/../h/list.hpp ****     struct Elem{
  16:src/../h/../h/list.hpp ****         //---[NEW i DELETE]--------------------------------------------
  17:src/../h/../h/list.hpp ****         void *operator new(size_t n){return __mem_alloc(n);}
  87              		.loc 2 17 56
  88 0074 13050001 		li	a0,16
  89 0078 97000000 		call	__mem_alloc@plt
  89      E7800000 
  90              	.LVL5:
  91              	.LBE22:
  92              	.LBE21:
  93              	.LBB23:
  94              	.LBB24:
  18:src/../h/../h/list.hpp ****         void *operator new[](size_t n){return __mem_alloc(n);}
  19:src/../h/../h/list.hpp ****         void operator delete(void *p) {__mem_free(p);}
  20:src/../h/../h/list.hpp ****         void operator delete[](void *p) {__mem_free(p);}
  21:src/../h/../h/list.hpp ****         //-------------------------------------------------------------
  22:src/../h/../h/list.hpp **** 
  23:src/../h/../h/list.hpp ****         T *data;
  24:src/../h/../h/list.hpp ****         Elem *next;
  25:src/../h/../h/list.hpp **** 
  26:src/../h/../h/list.hpp ****         Elem(T *data, Elem *next) : data(data), next(next) {}
  95              		.loc 2 26 58
  96 0080 23303501 		sd	s3,0(a0)
  97 0084 23340500 		sd	zero,8(a0)
  98              	.LVL6:
  99              	.LBE24:
 100              	.LBE23:
  27:src/../h/../h/list.hpp ****     };
  28:src/../h/../h/list.hpp **** 
  29:src/../h/../h/list.hpp ****     Elem *head, *tail;
  30:src/../h/../h/list.hpp ****     unsigned length;
  31:src/../h/../h/list.hpp ****     friend class TCB;
  32:src/../h/../h/list.hpp ****     friend class SleepingThread;
  33:src/../h/../h/list.hpp **** 
  34:src/../h/../h/list.hpp **** public:
  35:src/../h/../h/list.hpp ****     //---[NEW i DELETE]--------------------------------------------
  36:src/../h/../h/list.hpp ****     void *operator new(size_t n){return __mem_alloc(n);}
  37:src/../h/../h/list.hpp ****     void *operator new[](size_t n){return __mem_alloc(n);}
  38:src/../h/../h/list.hpp ****     void operator delete(void *p) {__mem_free(p);}
  39:src/../h/../h/list.hpp ****     void operator delete[](void *p) {__mem_free(p);}
  40:src/../h/../h/list.hpp ****     //-------------------------------------------------------------
GAS LISTING /tmp/ccTy7YVh.s 			page 4


  41:src/../h/../h/list.hpp ****     List() : head(0), tail(0), length(0) {}
  42:src/../h/../h/list.hpp **** 
  43:src/../h/../h/list.hpp ****     List(const List<T> &) = delete;
  44:src/../h/../h/list.hpp **** 
  45:src/../h/../h/list.hpp ****     List<T> &operator=(const List<T> &) = delete;
  46:src/../h/../h/list.hpp **** 
  47:src/../h/../h/list.hpp ****     unsigned get_length() const { return length;}
  48:src/../h/../h/list.hpp **** 
  49:src/../h/../h/list.hpp ****     void addFirst(T *data)
  50:src/../h/../h/list.hpp ****     {
  51:src/../h/../h/list.hpp ****         Elem *elem = new Elem(data, head);
  52:src/../h/../h/list.hpp ****         head = elem;
  53:src/../h/../h/list.hpp ****         if (!tail) { tail = head; }
  54:src/../h/../h/list.hpp ****         length++;
  55:src/../h/../h/list.hpp ****     }
  56:src/../h/../h/list.hpp **** 
  57:src/../h/../h/list.hpp ****     void addLast(T *data)
  58:src/../h/../h/list.hpp ****     {
  59:src/../h/../h/list.hpp ****         Elem *elem = new Elem(data, 0);
  60:src/../h/../h/list.hpp ****         if (tail)
 101              		.loc 2 60 13
 102 0088 83378900 		ld	a5,8(s2)
 103              		.loc 2 60 9
 104 008c 63820702 		beqz	a5,.L4
  61:src/../h/../h/list.hpp ****         {
  62:src/../h/../h/list.hpp ****             tail->next = elem;
 105              		.loc 2 62 13
 106 0090 23B4A700 		sd	a0,8(a5)
  63:src/../h/../h/list.hpp ****             tail = elem;
 107              		.loc 2 63 13
 108 0094 2334A900 		sd	a0,8(s2)
 109              	.L5:
  64:src/../h/../h/list.hpp ****         } else
  65:src/../h/../h/list.hpp ****         {
  66:src/../h/../h/list.hpp ****             head = tail = elem;
  67:src/../h/../h/list.hpp ****         }
  68:src/../h/../h/list.hpp ****         length++;
 110              		.loc 2 68 9
 111 0098 83270901 		lw	a5,16(s2)
 112 009c 9B871700 		addiw	a5,a5,1
 113 00a0 2328F900 		sw	a5,16(s2)
 114              	.LVL7:
 115              	.LBE20:
 116              	.LBE19:
  17:src/_sem.cpp  ****     }
 117              		.loc 1 17 9 is_stmt 1
  17:src/_sem.cpp  ****     }
 118              		.loc 1 17 19 is_stmt 0
 119 00a4 97000000 		call	_ZN3TCB5blockEv@plt
 119      E7800000 
 120              	.LVL8:
 121 00ac 6FF01FF9 		j	.L3
 122              	.LVL9:
 123              	.L4:
 124              	.LBB26:
 125              	.LBB25:
  66:src/../h/../h/list.hpp ****         }
GAS LISTING /tmp/ccTy7YVh.s 			page 5


 126              		.loc 2 66 13
 127 00b0 2334A900 		sd	a0,8(s2)
 128 00b4 23B4A400 		sd	a0,8(s1)
 129 00b8 6FF01FFE 		j	.L5
 130              	.LVL10:
 131              	.L6:
 132              		.cfi_def_cfa_register 2
 133              		.cfi_restore 1
 134              		.cfi_restore 8
 135              		.cfi_restore 9
 136              		.cfi_restore 18
 137              		.cfi_restore 19
 138              	.LBE25:
 139              	.LBE26:
  13:src/_sem.cpp  ****     }
 140              		.loc 1 13 17
 141 00bc 1305C0FF 		li	a0,-4
 142              	.LVL11:
 143              		.loc 1 27 1
 144 00c0 67800000 		ret
 145              	.LVL12:
 146              	.L7:
 147              		.cfi_def_cfa_register 8
 148              		.cfi_offset 1, -8
 149              		.cfi_offset 8, -16
 150              		.cfi_offset 9, -24
 151              		.cfi_offset 18, -32
 152              		.cfi_offset 19, -40
  25:src/_sem.cpp  ****     }
 153              		.loc 1 25 17
 154 00c4 130580FF 		li	a0,-8
 155 00c8 6FF01FF8 		j	.L2
 156              		.cfi_endproc
 157              	.LFE42:
 159              		.align	2
 160              		.globl	_ZN4_sem6signalEv
 162              	_ZN4_sem6signalEv:
 163              	.LFB43:
  28:src/_sem.cpp  **** 
  29:src/_sem.cpp  **** int _sem::signal (){
 164              		.loc 1 29 20 is_stmt 1
 165              		.cfi_startproc
 166              	.LVL13:
  30:src/_sem.cpp  ****     if(active==false){
 167              		.loc 1 30 5
 168              		.loc 1 30 8 is_stmt 0
 169 00cc 83474500 		lbu	a5,4(a0)
 170              		.loc 1 30 5
 171 00d0 638C0708 		beqz	a5,.L17
  31:src/_sem.cpp  ****         return -4;
  32:src/_sem.cpp  ****     }
  33:src/_sem.cpp  ****     if(++val<=0){
 172              		.loc 1 33 5 is_stmt 1
 173              	.LBB33:
 174              		.loc 1 33 10 is_stmt 0
 175 00d4 83270500 		lw	a5,0(a0)
 176              		.loc 1 33 8
GAS LISTING /tmp/ccTy7YVh.s 			page 6


 177 00d8 9B871700 		addiw	a5,a5,1
 178 00dc 1B870700 		sext.w	a4,a5
 179              		.loc 1 33 13
 180 00e0 2320F500 		sw	a5,0(a0)
 181              		.loc 1 33 5
 182 00e4 6356E000 		blez	a4,.L24
 183              	.LBE33:
  34:src/_sem.cpp  ****         TCB* t=blocked.removeFirst();
  35:src/_sem.cpp  ****         t->unblock();
  36:src/_sem.cpp  ****     }
  37:src/_sem.cpp  **** 
  38:src/_sem.cpp  ****     return 0;
 184              		.loc 1 38 12
 185 00e8 13050000 		li	a0,0
 186              	.LVL14:
  39:src/_sem.cpp  **** }
 187              		.loc 1 39 1
 188 00ec 67800000 		ret
 189              	.LVL15:
 190              	.L24:
  29:src/_sem.cpp  ****     if(active==false){
 191              		.loc 1 29 20
 192 00f0 130101FE 		addi	sp,sp,-32
 193              		.cfi_def_cfa_offset 32
 194 00f4 233C1100 		sd	ra,24(sp)
 195 00f8 23388100 		sd	s0,16(sp)
 196 00fc 23349100 		sd	s1,8(sp)
 197              		.cfi_offset 1, -8
 198              		.cfi_offset 8, -16
 199              		.cfi_offset 9, -24
 200 0100 13040102 		addi	s0,sp,32
 201              		.cfi_def_cfa 8, 0
 202              	.LBB42:
 203              	.LBB34:
  34:src/_sem.cpp  ****         TCB* t=blocked.removeFirst();
 204              		.loc 1 34 9 is_stmt 1
 205              	.LBB35:
 206              	.LBB36:
  69:src/../h/../h/list.hpp ****     }
  70:src/../h/../h/list.hpp **** 
  71:src/../h/../h/list.hpp ****     T *removeFirst()
  72:src/../h/../h/list.hpp ****     {
  73:src/../h/../h/list.hpp **** 
  74:src/../h/../h/list.hpp ****         if (!head) { return 0; }
 207              		.loc 2 74 14 is_stmt 0
 208 0104 83378500 		ld	a5,8(a0)
 209              		.loc 2 74 9
 210 0108 638C0704 		beqz	a5,.L19
  75:src/../h/../h/list.hpp ****         length--;
 211              		.loc 2 75 9
 212 010c 03278501 		lw	a4,24(a0)
 213 0110 1B07F7FF 		addiw	a4,a4,-1
 214 0114 232CE500 		sw	a4,24(a0)
 215              	.LVL16:
  76:src/../h/../h/list.hpp ****         Elem *elem = head;
  77:src/../h/../h/list.hpp ****         head = head->next;
 216              		.loc 2 77 22
GAS LISTING /tmp/ccTy7YVh.s 			page 7


 217 0118 03B78700 		ld	a4,8(a5)
 218              		.loc 2 77 9
 219 011c 2334E500 		sd	a4,8(a0)
  78:src/../h/../h/list.hpp ****         if (!head) { tail = 0; }
 220              		.loc 2 78 9
 221 0120 630C0702 		beqz	a4,.L25
 222              	.L16:
  79:src/../h/../h/list.hpp **** 
  80:src/../h/../h/list.hpp ****         T *ret = elem->data;
 223              		.loc 2 80 12
 224 0124 83B40700 		ld	s1,0(a5)
 225              	.LVL17:
 226              	.LBB37:
 227              	.LBB38:
  19:src/../h/../h/list.hpp ****         void operator delete[](void *p) {__mem_free(p);}
 228              		.loc 2 19 50
 229 0128 13850700 		mv	a0,a5
 230              	.LVL18:
 231 012c 97000000 		call	__mem_free@plt
 231      E7800000 
 232              	.LVL19:
 233              	.L15:
 234              	.LBE38:
 235              	.LBE37:
 236              	.LBE36:
 237              	.LBE35:
  35:src/_sem.cpp  ****     }
 238              		.loc 1 35 9 is_stmt 1
  35:src/_sem.cpp  ****     }
 239              		.loc 1 35 19 is_stmt 0
 240 0134 13850400 		mv	a0,s1
 241 0138 97000000 		call	_ZN3TCB7unblockEv@plt
 241      E7800000 
 242              	.LVL20:
 243              	.LBE34:
 244              	.LBE42:
  38:src/_sem.cpp  **** }
 245              		.loc 1 38 12
 246 0140 13050000 		li	a0,0
 247              		.loc 1 39 1
 248 0144 83308101 		ld	ra,24(sp)
 249              		.cfi_remember_state
 250              		.cfi_restore 1
 251 0148 03340101 		ld	s0,16(sp)
 252              		.cfi_restore 8
 253              		.cfi_def_cfa 2, 32
 254 014c 83348100 		ld	s1,8(sp)
 255              		.cfi_restore 9
 256              	.LVL21:
 257 0150 13010102 		addi	sp,sp,32
 258              		.cfi_def_cfa_offset 0
 259 0154 67800000 		jr	ra
 260              	.LVL22:
 261              	.L25:
 262              		.cfi_restore_state
 263              	.LBB43:
 264              	.LBB41:
GAS LISTING /tmp/ccTy7YVh.s 			page 8


 265              	.LBB40:
 266              	.LBB39:
  78:src/../h/../h/list.hpp **** 
 267              		.loc 2 78 22
 268 0158 23380500 		sd	zero,16(a0)
 269 015c 6FF09FFC 		j	.L16
 270              	.LVL23:
 271              	.L19:
  74:src/../h/../h/list.hpp ****         length--;
 272              		.loc 2 74 29
 273 0160 93840700 		mv	s1,a5
 274 0164 6FF01FFD 		j	.L15
 275              	.L17:
 276              		.cfi_def_cfa_register 2
 277              		.cfi_restore 1
 278              		.cfi_restore 8
 279              		.cfi_restore 9
 280              	.LBE39:
 281              	.LBE40:
 282              	.LBE41:
 283              	.LBE43:
  31:src/_sem.cpp  ****     }
 284              		.loc 1 31 17
 285 0168 1305C0FF 		li	a0,-4
 286              	.LVL24:
 287 016c 67800000 		ret
 288              		.cfi_endproc
 289              	.LFE43:
 291              		.align	2
 292              		.globl	_ZN4_sem5closeEv
 294              	_ZN4_sem5closeEv:
 295              	.LFB44:
  40:src/_sem.cpp  **** 
  41:src/_sem.cpp  **** int _sem::close() {
 296              		.loc 1 41 19 is_stmt 1
 297              		.cfi_startproc
 298              	.LVL25:
  42:src/_sem.cpp  ****     if(active==false){
 299              		.loc 1 42 5
 300              		.loc 1 42 8 is_stmt 0
 301 0170 83474500 		lbu	a5,4(a0)
 302              		.loc 1 42 5
 303 0174 638E0706 		beqz	a5,.L31
  41:src/_sem.cpp  ****     if(active==false){
 304              		.loc 1 41 19
 305 0178 130101FE 		addi	sp,sp,-32
 306              		.cfi_def_cfa_offset 32
 307 017c 233C1100 		sd	ra,24(sp)
 308 0180 23388100 		sd	s0,16(sp)
 309 0184 23349100 		sd	s1,8(sp)
 310 0188 23302101 		sd	s2,0(sp)
 311              		.cfi_offset 1, -8
 312              		.cfi_offset 8, -16
 313              		.cfi_offset 9, -24
 314              		.cfi_offset 18, -32
 315 018c 13040102 		addi	s0,sp,32
 316              		.cfi_def_cfa 8, 0
GAS LISTING /tmp/ccTy7YVh.s 			page 9


 317 0190 93040500 		mv	s1,a0
  43:src/_sem.cpp  ****         return -4;
  44:src/_sem.cpp  ****     }
  45:src/_sem.cpp  **** 
  46:src/_sem.cpp  ****     val=0, active=false;
 318              		.loc 1 46 5 is_stmt 1
 319              		.loc 1 46 8 is_stmt 0
 320 0194 23200500 		sw	zero,0(a0)
 321              		.loc 1 46 18
 322 0198 23020500 		sb	zero,4(a0)
 323 019c 6F000002 		j	.L30
 324              	.LVL26:
 325              	.L38:
 326              	.LBB51:
 327              	.LBB52:
 328              	.LBB53:
  78:src/../h/../h/list.hpp **** 
 329              		.loc 2 78 22
 330 01a0 23B80400 		sd	zero,16(s1)
 331              	.L29:
 332              		.loc 2 80 12
 333 01a4 03390500 		ld	s2,0(a0)
 334              	.LVL27:
 335              	.LBB54:
 336              	.LBB55:
  19:src/../h/../h/list.hpp ****         void operator delete[](void *p) {__mem_free(p);}
 337              		.loc 2 19 50
 338 01a8 97000000 		call	__mem_free@plt
 338      E7800000 
 339              	.LVL28:
 340              	.L28:
 341              	.LBE55:
 342              	.LBE54:
 343              	.LBE53:
 344              	.LBE52:
  47:src/_sem.cpp  **** 
  48:src/_sem.cpp  ****     while(blocked.get_length()>0){
  49:src/_sem.cpp  ****         //Sve niti koje su se zatekle da cekaju na semaforu
  50:src/_sem.cpp  ****         //se deblokiraju, pri cemu njihov wait vraca gresku
  51:src/_sem.cpp  ****         TCB* t=blocked.removeFirst();
  52:src/_sem.cpp  ****         t->unblock();
 345              		.loc 1 52 9 is_stmt 1
 346              		.loc 1 52 19 is_stmt 0
 347 01b0 13050900 		mv	a0,s2
 348 01b4 97000000 		call	_ZN3TCB7unblockEv@plt
 348      E7800000 
 349              	.LVL29:
 350              	.L30:
 351              	.LBE51:
  48:src/_sem.cpp  ****         //Sve niti koje su se zatekle da cekaju na semaforu
 352              		.loc 1 48 5 is_stmt 1
  48:src/_sem.cpp  ****         //Sve niti koje su se zatekle da cekaju na semaforu
 353              		.loc 1 48 31
 354              	.LBB58:
 355              	.LBB59:
  47:src/../h/../h/list.hpp **** 
 356              		.loc 2 47 42 is_stmt 0
GAS LISTING /tmp/ccTy7YVh.s 			page 10


 357 01bc 83A78401 		lw	a5,24(s1)
 358              	.LVL30:
 359              	.LBE59:
 360              	.LBE58:
  48:src/_sem.cpp  ****         //Sve niti koje su se zatekle da cekaju na semaforu
 361              		.loc 1 48 31
 362 01c0 638C0702 		beqz	a5,.L32
 363              	.LBB60:
  51:src/_sem.cpp  ****         t->unblock();
 364              		.loc 1 51 9 is_stmt 1
 365              	.LBB57:
 366              	.LBB56:
  74:src/../h/../h/list.hpp ****         length--;
 367              		.loc 2 74 14 is_stmt 0
 368 01c4 03B58400 		ld	a0,8(s1)
  74:src/../h/../h/list.hpp ****         length--;
 369              		.loc 2 74 9
 370 01c8 63000502 		beqz	a0,.L33
  75:src/../h/../h/list.hpp ****         Elem *elem = head;
 371              		.loc 2 75 9
 372 01cc 83A78401 		lw	a5,24(s1)
 373 01d0 9B87F7FF 		addiw	a5,a5,-1
 374 01d4 23ACF400 		sw	a5,24(s1)
 375              	.LVL31:
  77:src/../h/../h/list.hpp ****         if (!head) { tail = 0; }
 376              		.loc 2 77 22
 377 01d8 83378500 		ld	a5,8(a0)
  77:src/../h/../h/list.hpp ****         if (!head) { tail = 0; }
 378              		.loc 2 77 9
 379 01dc 23B4F400 		sd	a5,8(s1)
  78:src/../h/../h/list.hpp **** 
 380              		.loc 2 78 9
 381 01e0 E39207FC 		bnez	a5,.L29
 382 01e4 6FF0DFFB 		j	.L38
 383              	.LVL32:
 384              	.L33:
  74:src/../h/../h/list.hpp ****         length--;
 385              		.loc 2 74 29
 386 01e8 13090500 		mv	s2,a0
 387 01ec 6FF05FFC 		j	.L28
 388              	.LVL33:
 389              	.L31:
 390              		.cfi_def_cfa_register 2
 391              		.cfi_restore 1
 392              		.cfi_restore 8
 393              		.cfi_restore 9
 394              		.cfi_restore 18
 395              	.LBE56:
 396              	.LBE57:
 397              	.LBE60:
  43:src/_sem.cpp  ****     }
 398              		.loc 1 43 17
 399 01f0 1305C0FF 		li	a0,-4
 400              	.LVL34:
  53:src/_sem.cpp  ****     }
  54:src/_sem.cpp  ****     return 0;
  55:src/_sem.cpp  **** }...
GAS LISTING /tmp/ccTy7YVh.s 			page 11


 401              		.loc 1 55 1
 402 01f4 67800000 		ret
 403              	.LVL35:
 404              	.L32:
 405              		.cfi_def_cfa_register 8
 406              		.cfi_offset 1, -8
 407              		.cfi_offset 8, -16
 408              		.cfi_offset 9, -24
 409              		.cfi_offset 18, -32
  54:src/_sem.cpp  ****     return 0;
 410              		.loc 1 54 12
 411 01f8 13050000 		li	a0,0
 412              		.loc 1 55 1
 413 01fc 83308101 		ld	ra,24(sp)
 414              		.cfi_restore 1
 415 0200 03340101 		ld	s0,16(sp)
 416              		.cfi_restore 8
 417              		.cfi_def_cfa 2, 32
 418 0204 83348100 		ld	s1,8(sp)
 419              		.cfi_restore 9
 420              	.LVL36:
 421 0208 03390100 		ld	s2,0(sp)
 422              		.cfi_restore 18
 423 020c 13010102 		addi	sp,sp,32
 424              		.cfi_def_cfa_offset 0
 425 0210 67800000 		jr	ra
 426              		.cfi_endproc
 427              	.LFE44:
 429              		.align	2
 430              		.globl	_ZN4_semD2Ev
 432              	_ZN4_semD2Ev:
 433              	.LFB40:
   7:src/_sem.cpp  **** _sem::~_sem() {
 434              		.loc 1 7 1 is_stmt 1
 435              		.cfi_startproc
 436              		.cfi_personality 0x9b,DW.ref.__gxx_personality_v0
 437              		.cfi_lsda 0x1b,.LLSDA40
 438              	.LVL37:
 439 0214 130101FF 		addi	sp,sp,-16
 440              		.cfi_def_cfa_offset 16
 441 0218 23341100 		sd	ra,8(sp)
 442 021c 23308100 		sd	s0,0(sp)
 443              		.cfi_offset 1, -8
 444              		.cfi_offset 8, -16
 445 0220 13040101 		addi	s0,sp,16
 446              		.cfi_def_cfa 8, 0
 447              	.LBB61:
   8:src/_sem.cpp  ****     this->close();
 448              		.loc 1 8 5
   8:src/_sem.cpp  ****     this->close();
 449              		.loc 1 8 16 is_stmt 0
 450 0224 97000000 		call	_ZN4_sem5closeEv
 450      E7800000 
 451              	.LVL38:
 452              	.LBE61:
   9:src/_sem.cpp  **** }
 453              		.loc 1 9 1
GAS LISTING /tmp/ccTy7YVh.s 			page 12


 454 022c 83308100 		ld	ra,8(sp)
 455              		.cfi_restore 1
 456 0230 03340100 		ld	s0,0(sp)
 457              		.cfi_restore 8
 458              		.cfi_def_cfa 2, 16
 459 0234 13010101 		addi	sp,sp,16
 460              		.cfi_def_cfa_offset 0
 461 0238 67800000 		jr	ra
 462              		.cfi_endproc
 463              	.LFE40:
 464              		.globl	__gxx_personality_v0
 465              		.section	.gcc_except_table,"a",@progbits
 466              	.LLSDA40:
 467 0000 FF       		.byte	0xff
 468 0001 FF       		.byte	0xff
 469 0002 03       		.byte	0x3
 470 0003 00       		.byte	0
 471              		.text
 473              		.globl	_ZN4_semD1Ev
 474              		.set	_ZN4_semD1Ev,_ZN4_semD2Ev
 475              	.Letext0:
 476              		.file 3 "src/../h/../lib/hw.h"
 477              		.file 4 "src/../h/../h/tcb.hpp"
 478              		.file 5 "src/../h/syscall_c.h"
 479              		.file 6 "src/../h/_sem.hpp"
 480              		.file 7 "src/../h/../h/../lib/mem.h"
 3770              		.align	3
 3773              	DW.ref.__gxx_personality_v0:
 3774 0000 00000000 		.dword	__gxx_personality_v0
 3774      00000000 
 3775              		.ident	"GCC: (Ubuntu 9.4.0-1ubuntu1~20.04) 9.4.0"
 3776              		.section	.note.GNU-stack,"",@progbits
GAS LISTING /tmp/ccTy7YVh.s 			page 13


DEFINED SYMBOLS
                            *ABS*:0000000000000000 _sem.cpp
     /tmp/ccTy7YVh.s:9      .text:0000000000000000 _ZN4_sem4waitEv
     /tmp/ccTy7YVh.s:13     .text:0000000000000000 .L0 
     /tmp/ccTy7YVh.s:15     .text:0000000000000000 .L0 
     /tmp/ccTy7YVh.s:16     .text:0000000000000000 .L0 
     /tmp/ccTy7YVh.s:17     .text:0000000000000000 .L0 
     /tmp/ccTy7YVh.s:19     .text:0000000000000004 .L0 
     /tmp/ccTy7YVh.s:21     .text:0000000000000008 .L0 
     /tmp/ccTy7YVh.s:22     .text:000000000000000c .L0 
     /tmp/ccTy7YVh.s:28     .text:0000000000000020 .L0 
     /tmp/ccTy7YVh.s:29     .text:0000000000000020 .L0 
     /tmp/ccTy7YVh.s:30     .text:0000000000000020 .L0 
     /tmp/ccTy7YVh.s:31     .text:0000000000000020 .L0 
     /tmp/ccTy7YVh.s:32     .text:0000000000000020 .L0 
     /tmp/ccTy7YVh.s:34     .text:0000000000000024 .L0 
     /tmp/ccTy7YVh.s:37     .text:0000000000000028 .L0 
     /tmp/ccTy7YVh.s:38     .text:0000000000000028 .L0 
     /tmp/ccTy7YVh.s:40     .text:000000000000002c .L0 
     /tmp/ccTy7YVh.s:42     .text:0000000000000030 .L0 
     /tmp/ccTy7YVh.s:44     .text:0000000000000034 .L0 
     /tmp/ccTy7YVh.s:49     .text:000000000000003c .L0 
     /tmp/ccTy7YVh.s:50     .text:000000000000003c .L0 
     /tmp/ccTy7YVh.s:52     .text:0000000000000040 .L0 
     /tmp/ccTy7YVh.s:54     .text:0000000000000044 .L0 
     /tmp/ccTy7YVh.s:57     .text:0000000000000048 .L0 
     /tmp/ccTy7YVh.s:58     .text:000000000000004c .L0 
     /tmp/ccTy7YVh.s:59     .text:000000000000004c .L0 
     /tmp/ccTy7YVh.s:61     .text:0000000000000050 .L0 
     /tmp/ccTy7YVh.s:62     .text:0000000000000050 .L0 
     /tmp/ccTy7YVh.s:64     .text:0000000000000054 .L0 
     /tmp/ccTy7YVh.s:67     .text:0000000000000058 .L0 
     /tmp/ccTy7YVh.s:69     .text:000000000000005c .L0 
     /tmp/ccTy7YVh.s:71     .text:0000000000000060 .L0 
     /tmp/ccTy7YVh.s:75     .text:0000000000000064 .L0 
     /tmp/ccTy7YVh.s:77     .text:0000000000000064 .L0 
     /tmp/ccTy7YVh.s:78     .text:0000000000000064 .L0 
     /tmp/ccTy7YVh.s:88     .text:0000000000000074 .L0 
     /tmp/ccTy7YVh.s:96     .text:0000000000000080 .L0 
     /tmp/ccTy7YVh.s:102    .text:0000000000000088 .L0 
     /tmp/ccTy7YVh.s:104    .text:000000000000008c .L0 
     /tmp/ccTy7YVh.s:106    .text:0000000000000090 .L0 
     /tmp/ccTy7YVh.s:108    .text:0000000000000094 .L0 
     /tmp/ccTy7YVh.s:111    .text:0000000000000098 .L0 
     /tmp/ccTy7YVh.s:118    .text:00000000000000a4 .L0 
     /tmp/ccTy7YVh.s:119    .text:00000000000000a4 .L0 
     /tmp/ccTy7YVh.s:127    .text:00000000000000b0 .L0 
     /tmp/ccTy7YVh.s:132    .text:00000000000000bc .L0 
     /tmp/ccTy7YVh.s:133    .text:00000000000000bc .L0 
     /tmp/ccTy7YVh.s:134    .text:00000000000000bc .L0 
     /tmp/ccTy7YVh.s:135    .text:00000000000000bc .L0 
     /tmp/ccTy7YVh.s:136    .text:00000000000000bc .L0 
     /tmp/ccTy7YVh.s:137    .text:00000000000000bc .L0 
     /tmp/ccTy7YVh.s:141    .text:00000000000000bc .L0 
     /tmp/ccTy7YVh.s:144    .text:00000000000000c0 .L0 
     /tmp/ccTy7YVh.s:147    .text:00000000000000c4 .L0 
     /tmp/ccTy7YVh.s:148    .text:00000000000000c4 .L0 
GAS LISTING /tmp/ccTy7YVh.s 			page 14


     /tmp/ccTy7YVh.s:149    .text:00000000000000c4 .L0 
     /tmp/ccTy7YVh.s:150    .text:00000000000000c4 .L0 
     /tmp/ccTy7YVh.s:151    .text:00000000000000c4 .L0 
     /tmp/ccTy7YVh.s:152    .text:00000000000000c4 .L0 
     /tmp/ccTy7YVh.s:154    .text:00000000000000c4 .L0 
     /tmp/ccTy7YVh.s:156    .text:00000000000000cc .L0 
     /tmp/ccTy7YVh.s:162    .text:00000000000000cc _ZN4_sem6signalEv
     /tmp/ccTy7YVh.s:165    .text:00000000000000cc .L0 
     /tmp/ccTy7YVh.s:167    .text:00000000000000cc .L0 
     /tmp/ccTy7YVh.s:168    .text:00000000000000cc .L0 
     /tmp/ccTy7YVh.s:169    .text:00000000000000cc .L0 
     /tmp/ccTy7YVh.s:171    .text:00000000000000d0 .L0 
     /tmp/ccTy7YVh.s:174    .text:00000000000000d4 .L0 
     /tmp/ccTy7YVh.s:175    .text:00000000000000d4 .L0 
     /tmp/ccTy7YVh.s:177    .text:00000000000000d8 .L0 
     /tmp/ccTy7YVh.s:180    .text:00000000000000e0 .L0 
     /tmp/ccTy7YVh.s:182    .text:00000000000000e4 .L0 
     /tmp/ccTy7YVh.s:185    .text:00000000000000e8 .L0 
     /tmp/ccTy7YVh.s:188    .text:00000000000000ec .L0 
     /tmp/ccTy7YVh.s:192    .text:00000000000000f0 .L0 
     /tmp/ccTy7YVh.s:193    .text:00000000000000f4 .L0 
     /tmp/ccTy7YVh.s:197    .text:0000000000000100 .L0 
     /tmp/ccTy7YVh.s:198    .text:0000000000000100 .L0 
     /tmp/ccTy7YVh.s:199    .text:0000000000000100 .L0 
     /tmp/ccTy7YVh.s:201    .text:0000000000000104 .L0 
     /tmp/ccTy7YVh.s:207    .text:0000000000000104 .L0 
     /tmp/ccTy7YVh.s:208    .text:0000000000000104 .L0 
     /tmp/ccTy7YVh.s:210    .text:0000000000000108 .L0 
     /tmp/ccTy7YVh.s:212    .text:000000000000010c .L0 
     /tmp/ccTy7YVh.s:217    .text:0000000000000118 .L0 
     /tmp/ccTy7YVh.s:219    .text:000000000000011c .L0 
     /tmp/ccTy7YVh.s:221    .text:0000000000000120 .L0 
     /tmp/ccTy7YVh.s:224    .text:0000000000000124 .L0 
     /tmp/ccTy7YVh.s:229    .text:0000000000000128 .L0 
     /tmp/ccTy7YVh.s:239    .text:0000000000000134 .L0 
     /tmp/ccTy7YVh.s:240    .text:0000000000000134 .L0 
     /tmp/ccTy7YVh.s:246    .text:0000000000000140 .L0 
     /tmp/ccTy7YVh.s:248    .text:0000000000000144 .L0 
     /tmp/ccTy7YVh.s:249    .text:0000000000000148 .L0 
     /tmp/ccTy7YVh.s:250    .text:0000000000000148 .L0 
     /tmp/ccTy7YVh.s:252    .text:000000000000014c .L0 
     /tmp/ccTy7YVh.s:253    .text:000000000000014c .L0 
     /tmp/ccTy7YVh.s:255    .text:0000000000000150 .L0 
     /tmp/ccTy7YVh.s:258    .text:0000000000000154 .L0 
     /tmp/ccTy7YVh.s:262    .text:0000000000000158 .L0 
     /tmp/ccTy7YVh.s:268    .text:0000000000000158 .L0 
     /tmp/ccTy7YVh.s:273    .text:0000000000000160 .L0 
     /tmp/ccTy7YVh.s:276    .text:0000000000000168 .L0 
     /tmp/ccTy7YVh.s:277    .text:0000000000000168 .L0 
     /tmp/ccTy7YVh.s:278    .text:0000000000000168 .L0 
     /tmp/ccTy7YVh.s:279    .text:0000000000000168 .L0 
     /tmp/ccTy7YVh.s:285    .text:0000000000000168 .L0 
     /tmp/ccTy7YVh.s:288    .text:0000000000000170 .L0 
     /tmp/ccTy7YVh.s:294    .text:0000000000000170 _ZN4_sem5closeEv
     /tmp/ccTy7YVh.s:297    .text:0000000000000170 .L0 
     /tmp/ccTy7YVh.s:299    .text:0000000000000170 .L0 
     /tmp/ccTy7YVh.s:300    .text:0000000000000170 .L0 
GAS LISTING /tmp/ccTy7YVh.s 			page 15


     /tmp/ccTy7YVh.s:301    .text:0000000000000170 .L0 
     /tmp/ccTy7YVh.s:303    .text:0000000000000174 .L0 
     /tmp/ccTy7YVh.s:305    .text:0000000000000178 .L0 
     /tmp/ccTy7YVh.s:306    .text:000000000000017c .L0 
     /tmp/ccTy7YVh.s:311    .text:000000000000018c .L0 
     /tmp/ccTy7YVh.s:312    .text:000000000000018c .L0 
     /tmp/ccTy7YVh.s:313    .text:000000000000018c .L0 
     /tmp/ccTy7YVh.s:314    .text:000000000000018c .L0 
     /tmp/ccTy7YVh.s:316    .text:0000000000000190 .L0 
     /tmp/ccTy7YVh.s:319    .text:0000000000000194 .L0 
     /tmp/ccTy7YVh.s:320    .text:0000000000000194 .L0 
     /tmp/ccTy7YVh.s:322    .text:0000000000000198 .L0 
     /tmp/ccTy7YVh.s:330    .text:00000000000001a0 .L0 
     /tmp/ccTy7YVh.s:333    .text:00000000000001a4 .L0 
     /tmp/ccTy7YVh.s:338    .text:00000000000001a8 .L0 
     /tmp/ccTy7YVh.s:346    .text:00000000000001b0 .L0 
     /tmp/ccTy7YVh.s:347    .text:00000000000001b0 .L0 
     /tmp/ccTy7YVh.s:353    .text:00000000000001bc .L0 
     /tmp/ccTy7YVh.s:356    .text:00000000000001bc .L0 
     /tmp/ccTy7YVh.s:357    .text:00000000000001bc .L0 
     /tmp/ccTy7YVh.s:362    .text:00000000000001c0 .L0 
     /tmp/ccTy7YVh.s:367    .text:00000000000001c4 .L0 
     /tmp/ccTy7YVh.s:368    .text:00000000000001c4 .L0 
     /tmp/ccTy7YVh.s:370    .text:00000000000001c8 .L0 
     /tmp/ccTy7YVh.s:372    .text:00000000000001cc .L0 
     /tmp/ccTy7YVh.s:377    .text:00000000000001d8 .L0 
     /tmp/ccTy7YVh.s:379    .text:00000000000001dc .L0 
     /tmp/ccTy7YVh.s:381    .text:00000000000001e0 .L0 
     /tmp/ccTy7YVh.s:386    .text:00000000000001e8 .L0 
     /tmp/ccTy7YVh.s:390    .text:00000000000001f0 .L0 
     /tmp/ccTy7YVh.s:391    .text:00000000000001f0 .L0 
     /tmp/ccTy7YVh.s:392    .text:00000000000001f0 .L0 
     /tmp/ccTy7YVh.s:393    .text:00000000000001f0 .L0 
     /tmp/ccTy7YVh.s:394    .text:00000000000001f0 .L0 
     /tmp/ccTy7YVh.s:399    .text:00000000000001f0 .L0 
     /tmp/ccTy7YVh.s:402    .text:00000000000001f4 .L0 
     /tmp/ccTy7YVh.s:405    .text:00000000000001f8 .L0 
     /tmp/ccTy7YVh.s:406    .text:00000000000001f8 .L0 
     /tmp/ccTy7YVh.s:407    .text:00000000000001f8 .L0 
     /tmp/ccTy7YVh.s:408    .text:00000000000001f8 .L0 
     /tmp/ccTy7YVh.s:409    .text:00000000000001f8 .L0 
     /tmp/ccTy7YVh.s:411    .text:00000000000001f8 .L0 
     /tmp/ccTy7YVh.s:413    .text:00000000000001fc .L0 
     /tmp/ccTy7YVh.s:414    .text:0000000000000200 .L0 
     /tmp/ccTy7YVh.s:416    .text:0000000000000204 .L0 
     /tmp/ccTy7YVh.s:417    .text:0000000000000204 .L0 
     /tmp/ccTy7YVh.s:419    .text:0000000000000208 .L0 
     /tmp/ccTy7YVh.s:422    .text:000000000000020c .L0 
     /tmp/ccTy7YVh.s:424    .text:0000000000000210 .L0 
     /tmp/ccTy7YVh.s:426    .text:0000000000000214 .L0 
     /tmp/ccTy7YVh.s:432    .text:0000000000000214 _ZN4_semD2Ev
     /tmp/ccTy7YVh.s:435    .text:0000000000000214 .L0 
     /tmp/ccTy7YVh.s:3773   .data.rel.local.DW.ref.__gxx_personality_v0:0000000000000000 DW.ref.__gxx_personality_v0
     /tmp/ccTy7YVh.s:439    .text:0000000000000214 .L0 
     /tmp/ccTy7YVh.s:440    .text:0000000000000218 .L0 
     /tmp/ccTy7YVh.s:443    .text:0000000000000220 .L0 
     /tmp/ccTy7YVh.s:444    .text:0000000000000220 .L0 
GAS LISTING /tmp/ccTy7YVh.s 			page 16


     /tmp/ccTy7YVh.s:446    .text:0000000000000224 .L0 
     /tmp/ccTy7YVh.s:449    .text:0000000000000224 .L0 
     /tmp/ccTy7YVh.s:450    .text:0000000000000224 .L0 
     /tmp/ccTy7YVh.s:454    .text:000000000000022c .L0 
     /tmp/ccTy7YVh.s:455    .text:0000000000000230 .L0 
     /tmp/ccTy7YVh.s:457    .text:0000000000000234 .L0 
     /tmp/ccTy7YVh.s:458    .text:0000000000000234 .L0 
     /tmp/ccTy7YVh.s:460    .text:0000000000000238 .L0 
     /tmp/ccTy7YVh.s:462    .text:000000000000023c .L0 
     /tmp/ccTy7YVh.s:432    .text:0000000000000214 _ZN4_semD1Ev
     /tmp/ccTy7YVh.s:481    .text:000000000000023c .L0 
     /tmp/ccTy7YVh.s:79     .text:0000000000000068 .L0 
     /tmp/ccTy7YVh.s:131    .text:00000000000000bc .L6
     /tmp/ccTy7YVh.s:74     .text:0000000000000064 .L12
     /tmp/ccTy7YVh.s:146    .text:00000000000000c4 .L7
     /tmp/ccTy7YVh.s:123    .text:00000000000000b0 .L4
     /tmp/ccTy7YVh.s:47     .text:000000000000003c .L3
     /tmp/ccTy7YVh.s:109    .text:0000000000000098 .L5
     /tmp/ccTy7YVh.s:55     .text:0000000000000048 .L2
     /tmp/ccTy7YVh.s:275    .text:0000000000000168 .L17
     /tmp/ccTy7YVh.s:190    .text:00000000000000f0 .L24
     /tmp/ccTy7YVh.s:271    .text:0000000000000160 .L19
     /tmp/ccTy7YVh.s:261    .text:0000000000000158 .L25
     /tmp/ccTy7YVh.s:222    .text:0000000000000124 .L16
     /tmp/ccTy7YVh.s:233    .text:0000000000000134 .L15
     /tmp/ccTy7YVh.s:389    .text:00000000000001f0 .L31
     /tmp/ccTy7YVh.s:350    .text:00000000000001bc .L30
     /tmp/ccTy7YVh.s:404    .text:00000000000001f8 .L32
     /tmp/ccTy7YVh.s:384    .text:00000000000001e8 .L33
     /tmp/ccTy7YVh.s:331    .text:00000000000001a4 .L29
     /tmp/ccTy7YVh.s:325    .text:00000000000001a0 .L38
     /tmp/ccTy7YVh.s:340    .text:00000000000001b0 .L28
     /tmp/ccTy7YVh.s:2001   .debug_abbrev:0000000000000000 .Ldebug_abbrev0
     /tmp/ccTy7YVh.s:3717   .debug_str:000000000000077e .LASF148
     /tmp/ccTy7YVh.s:3463   .debug_str:000000000000004f .LASF149
     /tmp/ccTy7YVh.s:3689   .debug_str:000000000000068e .LASF150
     /tmp/ccTy7YVh.s:5      .text:0000000000000000 .Ltext0
     /tmp/ccTy7YVh.s:475    .text:000000000000023c .Letext0
     /tmp/ccTy7YVh.s:3449   .debug_line:0000000000000000 .Ldebug_line0
     /tmp/ccTy7YVh.s:3629   .debug_str:0000000000000522 .LASF0
     /tmp/ccTy7YVh.s:3647   .debug_str:0000000000000584 .LASF1
     /tmp/ccTy7YVh.s:3609   .debug_str:0000000000000493 .LASF2
     /tmp/ccTy7YVh.s:3575   .debug_str:00000000000003e8 .LASF4
     /tmp/ccTy7YVh.s:3693   .debug_str:00000000000006b8 .LASF3
     /tmp/ccTy7YVh.s:3479   .debug_str:00000000000000c5 .LASF5
     /tmp/ccTy7YVh.s:3521   .debug_str:000000000000021e .LASF6
     /tmp/ccTy7YVh.s:3651   .debug_str:00000000000005a2 .LASF7
     /tmp/ccTy7YVh.s:3627   .debug_str:000000000000050f .LASF8
     /tmp/ccTy7YVh.s:3735   .debug_str:00000000000008de .LASF9
     /tmp/ccTy7YVh.s:3557   .debug_str:0000000000000348 .LASF10
     /tmp/ccTy7YVh.s:3667   .debug_str:000000000000060f .LASF11
     /tmp/ccTy7YVh.s:3721   .debug_str:000000000000084e .LASF12
     /tmp/ccTy7YVh.s:3485   .debug_str:00000000000000e4 .LASF13
     /tmp/ccTy7YVh.s:3455   .debug_str:0000000000000024 .LASF14
     /tmp/ccTy7YVh.s:3499   .debug_str:000000000000016c .LASF15
     /tmp/ccTy7YVh.s:3685   .debug_str:0000000000000673 .LASF16
     /tmp/ccTy7YVh.s:3513   .debug_str:00000000000001de .LASF17
GAS LISTING /tmp/ccTy7YVh.s 			page 17


     /tmp/ccTy7YVh.s:3595   .debug_str:000000000000045a .LASF54
     /tmp/ccTy7YVh.s:3597   .debug_str:0000000000000464 .LASF28
     /tmp/ccTy7YVh.s:3747   .debug_str:0000000000000936 .LASF18
     /tmp/ccTy7YVh.s:3517   .debug_str:0000000000000201 .LASF20
     /tmp/ccTy7YVh.s:3553   .debug_str:0000000000000330 .LASF19
     /tmp/ccTy7YVh.s:3487   .debug_str:00000000000000f4 .LASF21
     /tmp/ccTy7YVh.s:3701   .debug_str:00000000000006f3 .LASF22
     /tmp/ccTy7YVh.s:3723   .debug_str:000000000000085d .LASF24
     /tmp/ccTy7YVh.s:3705   .debug_str:000000000000071f .LASF23
     /tmp/ccTy7YVh.s:3765   .debug_str:00000000000009c1 .LASF25
     /tmp/ccTy7YVh.s:3679   .debug_str:000000000000064a .LASF26
     /tmp/ccTy7YVh.s:3761   .debug_str:00000000000009a8 .LASF27
     /tmp/ccTy7YVh.s:3619   .debug_str:00000000000004d9 .LASF29
     /tmp/ccTy7YVh.s:3519   .debug_str:0000000000000219 .LASF30
     /tmp/ccTy7YVh.s:3603   .debug_str:000000000000047d .LASF31
     /tmp/ccTy7YVh.s:3601   .debug_str:0000000000000476 .LASF32
     /tmp/ccTy7YVh.s:3699   .debug_str:00000000000006e0 .LASF33
     /tmp/ccTy7YVh.s:3675   .debug_str:0000000000000632 .LASF34
     /tmp/ccTy7YVh.s:3495   .debug_str:000000000000014e .LASF35
     /tmp/ccTy7YVh.s:3763   .debug_str:00000000000009ad .LASF36
     /tmp/ccTy7YVh.s:3573   .debug_str:00000000000003e3 .LASF37
     /tmp/ccTy7YVh.s:3707   .debug_str:0000000000000732 .LASF38
     /tmp/ccTy7YVh.s:3683   .debug_str:000000000000065c .LASF40
     /tmp/ccTy7YVh.s:3621   .debug_str:00000000000004f8 .LASF151
     /tmp/ccTy7YVh.s:3563   .debug_str:0000000000000374 .LASF152
     /tmp/ccTy7YVh.s:3545   .debug_str:00000000000002f2 .LASF39
     /tmp/ccTy7YVh.s:3489   .debug_str:000000000000010c .LASF41
     /tmp/ccTy7YVh.s:3715   .debug_str:0000000000000775 .LASF42
     /tmp/ccTy7YVh.s:3527   .debug_str:0000000000000250 .LASF43
     /tmp/ccTy7YVh.s:3555   .debug_str:0000000000000340 .LASF44
     /tmp/ccTy7YVh.s:3525   .debug_str:0000000000000234 .LASF45
     /tmp/ccTy7YVh.s:3719   .debug_str:0000000000000842 .LASF46
     /tmp/ccTy7YVh.s:3453   .debug_str:0000000000000006 .LASF47
     /tmp/ccTy7YVh.s:3497   .debug_str:0000000000000162 .LASF48
     /tmp/ccTy7YVh.s:3587   .debug_str:0000000000000422 .LASF49
     /tmp/ccTy7YVh.s:3635   .debug_str:000000000000053e .LASF50
     /tmp/ccTy7YVh.s:3471   .debug_str:0000000000000089 .LASF51
     /tmp/ccTy7YVh.s:3589   .debug_str:000000000000043d .LASF52
     /tmp/ccTy7YVh.s:3753   .debug_str:000000000000095b .LASF53
     /tmp/ccTy7YVh.s:3473   .debug_str:00000000000000a6 .LASF153
     /tmp/ccTy7YVh.s:3743   .debug_str:0000000000000928 .LASF55
     /tmp/ccTy7YVh.s:3665   .debug_str:0000000000000609 .LASF56
     /tmp/ccTy7YVh.s:3659   .debug_str:00000000000005df .LASF57
     /tmp/ccTy7YVh.s:3671   .debug_str:0000000000000624 .LASF58
     /tmp/ccTy7YVh.s:3577   .debug_str:00000000000003ef .LASF59
     /tmp/ccTy7YVh.s:3697   .debug_str:00000000000006d7 .LASF60
     /tmp/ccTy7YVh.s:3569   .debug_str:00000000000003b2 .LASF61
     /tmp/ccTy7YVh.s:3461   .debug_str:0000000000000047 .LASF154
     /tmp/ccTy7YVh.s:3477   .debug_str:00000000000000b9 .LASF62
     /tmp/ccTy7YVh.s:3561   .debug_str:0000000000000368 .LASF63
     /tmp/ccTy7YVh.s:3681   .debug_str:000000000000064f .LASF64
     /tmp/ccTy7YVh.s:3695   .debug_str:00000000000006ca .LASF65
     /tmp/ccTy7YVh.s:3529   .debug_str:000000000000026d .LASF66
     /tmp/ccTy7YVh.s:3457   .debug_str:0000000000000034 .LASF67
     /tmp/ccTy7YVh.s:3655   .debug_str:00000000000005cd .LASF68
     /tmp/ccTy7YVh.s:3505   .debug_str:00000000000001a1 .LASF69
     /tmp/ccTy7YVh.s:3617   .debug_str:00000000000004d0 .LASF70
GAS LISTING /tmp/ccTy7YVh.s 			page 18


     /tmp/ccTy7YVh.s:3535   .debug_str:0000000000000288 .LASF71
     /tmp/ccTy7YVh.s:3585   .debug_str:0000000000000419 .LASF72
     /tmp/ccTy7YVh.s:3549   .debug_str:000000000000030f .LASF73
     /tmp/ccTy7YVh.s:3599   .debug_str:0000000000000469 .LASF74
     /tmp/ccTy7YVh.s:3709   .debug_str:0000000000000745 .LASF75
     /tmp/ccTy7YVh.s:3607   .debug_str:0000000000000488 .LASF76
     /tmp/ccTy7YVh.s:3729   .debug_str:000000000000089a .LASF78
     /tmp/ccTy7YVh.s:3491   .debug_str:000000000000012a .LASF77
     /tmp/ccTy7YVh.s:3755   .debug_str:0000000000000975 .LASF79
     /tmp/ccTy7YVh.s:3465   .debug_str:000000000000005c .LASF80
     /tmp/ccTy7YVh.s:3733   .debug_str:00000000000008c1 .LASF81
     /tmp/ccTy7YVh.s:3663   .debug_str:00000000000005fa .LASF82
     /tmp/ccTy7YVh.s:3611   .debug_str:00000000000004a1 .LASF83
     /tmp/ccTy7YVh.s:3751   .debug_str:0000000000000953 .LASF84
     /tmp/ccTy7YVh.s:3639   .debug_str:000000000000054e .LASF85
     /tmp/ccTy7YVh.s:3645   .debug_str:0000000000000576 .LASF86
     /tmp/ccTy7YVh.s:3537   .debug_str:00000000000002a4 .LASF87
     /tmp/ccTy7YVh.s:3677   .debug_str:0000000000000645 .LASF155
     /tmp/ccTy7YVh.s:3643   .debug_str:000000000000055f .LASF88
     /tmp/ccTy7YVh.s:3579   .debug_str:00000000000003f7 .LASF89
     /tmp/ccTy7YVh.s:3633   .debug_str:0000000000000538 .LASF90
     /tmp/ccTy7YVh.s:3583   .debug_str:0000000000000411 .LASF91
     /tmp/ccTy7YVh.s:3469   .debug_str:000000000000007b .LASF92
     /tmp/ccTy7YVh.s:3641   .debug_str:0000000000000555 .LASF93
     /tmp/ccTy7YVh.s:3741   .debug_str:000000000000091d .LASF94
     /tmp/ccTy7YVh.s:3745   .debug_str:0000000000000930 .LASF95
     /tmp/ccTy7YVh.s:3615   .debug_str:00000000000004c4 .LASF96
     /tmp/ccTy7YVh.s:3523   .debug_str:0000000000000225 .LASF97
     /tmp/ccTy7YVh.s:3591   .debug_str:0000000000000446 .LASF104
     /tmp/ccTy7YVh.s:3565   .debug_str:000000000000038b .LASF106
     /tmp/ccTy7YVh.s:3749   .debug_str:0000000000000943 .LASF98
     /tmp/ccTy7YVh.s:3703   .debug_str:0000000000000703 .LASF99
     /tmp/ccTy7YVh.s:3581   .debug_str:00000000000003fc .LASF100
     /tmp/ccTy7YVh.s:3541   .debug_str:00000000000002cc .LASF101
     /tmp/ccTy7YVh.s:3507   .debug_str:00000000000001b8 .LASF102
     /tmp/ccTy7YVh.s:3571   .debug_str:00000000000003bb .LASF103
     /tmp/ccTy7YVh.s:3631   .debug_str:000000000000052f .LASF105
     /tmp/ccTy7YVh.s:3661   .debug_str:00000000000005e7 .LASF107
     /tmp/ccTy7YVh.s:3493   .debug_str:000000000000013d .LASF108
     /tmp/ccTy7YVh.s:3511   .debug_str:00000000000001d6 .LASF109
     /tmp/ccTy7YVh.s:3547   .debug_str:00000000000002fd .LASF110
     /tmp/ccTy7YVh.s:3691   .debug_str:00000000000006b3 .LASF111
     /tmp/ccTy7YVh.s:3759   .debug_str:0000000000000999 .LASF113
     /tmp/ccTy7YVh.s:3531   .debug_str:0000000000000272 .LASF112
     /tmp/ccTy7YVh.s:3533   .debug_str:0000000000000278 .LASF114
     /tmp/ccTy7YVh.s:3481   .debug_str:00000000000000cc .LASF115
     /tmp/ccTy7YVh.s:3559   .debug_str:0000000000000356 .LASF116
     /tmp/ccTy7YVh.s:3711   .debug_str:000000000000075e .LASF117
     /tmp/ccTy7YVh.s:3613   .debug_str:00000000000004b4 .LASF118
     /tmp/ccTy7YVh.s:3653   .debug_str:00000000000005b5 .LASF119
     /tmp/ccTy7YVh.s:3739   .debug_str:00000000000008fa .LASF120
     /tmp/ccTy7YVh.s:3605   .debug_str:0000000000000482 .LASF121
     /tmp/ccTy7YVh.s:3483   .debug_str:00000000000000d4 .LASF122
     /tmp/ccTy7YVh.s:3543   .debug_str:00000000000002ed .LASF123
     /tmp/ccTy7YVh.s:3757   .debug_str:0000000000000993 .LASF124
     /tmp/ccTy7YVh.s:3637   .debug_str:0000000000000549 .LASF125
     /tmp/ccTy7YVh.s:3515   .debug_str:00000000000001f4 .LASF126
GAS LISTING /tmp/ccTy7YVh.s 			page 19


     /tmp/ccTy7YVh.s:3475   .debug_str:00000000000000ac .LASF127
     /tmp/ccTy7YVh.s:3551   .debug_str:0000000000000322 .LASF128
     /tmp/ccTy7YVh.s:3567   .debug_str:00000000000003a4 .LASF129
     /tmp/ccTy7YVh.s:3669   .debug_str:000000000000061e .LASF130
     /tmp/ccTy7YVh.s:3725   .debug_str:0000000000000876 .LASF131
     /tmp/ccTy7YVh.s:3713   .debug_str:0000000000000764 .LASF132
     /tmp/ccTy7YVh.s:3593   .debug_str:0000000000000454 .LASF133
     /tmp/ccTy7YVh.s:3467   .debug_str:000000000000006e .LASF134
     /tmp/ccTy7YVh.s:3623   .debug_str:0000000000000502 .LASF135
     /tmp/ccTy7YVh.s:3509   .debug_str:00000000000001c6 .LASF136
     /tmp/ccTy7YVh.s:3657   .debug_str:00000000000005d8 .LASF137
     /tmp/ccTy7YVh.s:3727   .debug_str:0000000000000888 .LASF138
     /tmp/ccTy7YVh.s:3451   .debug_str:0000000000000000 .LASF139
     /tmp/ccTy7YVh.s:3731   .debug_str:00000000000008b0 .LASF140
     /tmp/ccTy7YVh.s:3459   .debug_str:0000000000000040 .LASF141
     /tmp/ccTy7YVh.s:3625   .debug_str:0000000000000507 .LASF142
     /tmp/ccTy7YVh.s:3673   .debug_str:000000000000062d .LASF143
     /tmp/ccTy7YVh.s:3503   .debug_str:0000000000000182 .LASF156
     /tmp/ccTy7YVh.s:3687   .debug_str:0000000000000689 .LASF144
     /tmp/ccTy7YVh.s:295    .text:0000000000000170 .LFB44
     /tmp/ccTy7YVh.s:427    .text:0000000000000214 .LFE44
     /tmp/ccTy7YVh.s:3148   .debug_loc:0000000000000000 .LLST13
     /tmp/ccTy7YVh.s:3417   .debug_ranges:0000000000000000 .Ldebug_ranges0
     /tmp/ccTy7YVh.s:3181   .debug_loc:0000000000000088 .LLST14
     /tmp/ccTy7YVh.s:327    .text:00000000000001a0 .LBB52
     /tmp/ccTy7YVh.s:3188   .debug_loc:00000000000000ab .LLST15
     /tmp/ccTy7YVh.s:3199   .debug_loc:00000000000000e1 .LLST16
     /tmp/ccTy7YVh.s:335    .text:00000000000001a8 .LBB54
     /tmp/ccTy7YVh.s:342    .text:00000000000001b0 .LBE54
     /tmp/ccTy7YVh.s:3206   .debug_loc:0000000000000104 .LLST17
     /tmp/ccTy7YVh.s:339    .text:00000000000001b0 .LVL28
     /tmp/ccTy7YVh.s:349    .text:00000000000001bc .LVL29
     /tmp/ccTy7YVh.s:354    .text:00000000000001bc .LBB58
     /tmp/ccTy7YVh.s:360    .text:00000000000001c0 .LBE58
     /tmp/ccTy7YVh.s:3213   .debug_loc:0000000000000127 .LLST18
     /tmp/ccTy7YVh.s:163    .text:00000000000000cc .LFB43
     /tmp/ccTy7YVh.s:289    .text:0000000000000170 .LFE43
     /tmp/ccTy7YVh.s:3222   .debug_loc:000000000000014c .LLST8
     /tmp/ccTy7YVh.s:3258   .debug_loc:00000000000001d7 .LLST9
     /tmp/ccTy7YVh.s:205    .text:0000000000000104 .LBB35
     /tmp/ccTy7YVh.s:3265   .debug_loc:00000000000001fa .LLST10
     /tmp/ccTy7YVh.s:3276   .debug_loc:0000000000000230 .LLST11
     /tmp/ccTy7YVh.s:226    .text:0000000000000128 .LBB37
     /tmp/ccTy7YVh.s:235    .text:0000000000000134 .LBE37
     /tmp/ccTy7YVh.s:3283   .debug_loc:0000000000000253 .LLST12
     /tmp/ccTy7YVh.s:232    .text:0000000000000134 .LVL19
     /tmp/ccTy7YVh.s:242    .text:0000000000000140 .LVL20
     /tmp/ccTy7YVh.s:10     .text:0000000000000000 .LFB42
     /tmp/ccTy7YVh.s:157    .text:00000000000000cc .LFE42
     /tmp/ccTy7YVh.s:3290   .debug_loc:0000000000000276 .LLST0
     /tmp/ccTy7YVh.s:82     .text:0000000000000074 .LBB19
     /tmp/ccTy7YVh.s:3327   .debug_loc:0000000000000311 .LLST1
     /tmp/ccTy7YVh.s:3338   .debug_loc:0000000000000347 .LLST2
     /tmp/ccTy7YVh.s:3349   .debug_loc:000000000000037d .LLST3
     /tmp/ccTy7YVh.s:84     .text:0000000000000074 .LBB21
     /tmp/ccTy7YVh.s:92     .text:0000000000000080 .LBE21
     /tmp/ccTy7YVh.s:3360   .debug_loc:00000000000003b3 .LLST4
GAS LISTING /tmp/ccTy7YVh.s 			page 20


     /tmp/ccTy7YVh.s:90     .text:0000000000000080 .LVL5
     /tmp/ccTy7YVh.s:93     .text:0000000000000080 .LBB23
     /tmp/ccTy7YVh.s:100    .text:0000000000000088 .LBE23
     /tmp/ccTy7YVh.s:3368   .debug_loc:00000000000003d7 .LLST5
     /tmp/ccTy7YVh.s:3376   .debug_loc:00000000000003fb .LLST6
     /tmp/ccTy7YVh.s:3383   .debug_loc:000000000000041e .LLST7
     /tmp/ccTy7YVh.s:120    .text:00000000000000ac .LVL8
     /tmp/ccTy7YVh.s:3501   .debug_str:0000000000000178 .LASF145
     /tmp/ccTy7YVh.s:3539   .debug_str:00000000000002bf .LASF157
     /tmp/ccTy7YVh.s:433    .text:0000000000000214 .LFB40
     /tmp/ccTy7YVh.s:463    .text:000000000000023c .LFE40
     /tmp/ccTy7YVh.s:3390   .debug_loc:0000000000000441 .LLST19
     /tmp/ccTy7YVh.s:451    .text:000000000000022c .LVL38
     /tmp/ccTy7YVh.s:3649   .debug_str:0000000000000597 .LASF146
     /tmp/ccTy7YVh.s:3737   .debug_str:00000000000008ee .LASF147
     /tmp/ccTy7YVh.s:298    .text:0000000000000170 .LVL25
     /tmp/ccTy7YVh.s:324    .text:00000000000001a0 .LVL26
     /tmp/ccTy7YVh.s:388    .text:00000000000001f0 .LVL33
     /tmp/ccTy7YVh.s:400    .text:00000000000001f4 .LVL34
     /tmp/ccTy7YVh.s:403    .text:00000000000001f8 .LVL35
     /tmp/ccTy7YVh.s:420    .text:0000000000000208 .LVL36
     /tmp/ccTy7YVh.s:375    .text:00000000000001d8 .LVL31
     /tmp/ccTy7YVh.s:383    .text:00000000000001e8 .LVL32
     /tmp/ccTy7YVh.s:334    .text:00000000000001a8 .LVL27
     /tmp/ccTy7YVh.s:358    .text:00000000000001c0 .LVL30
     /tmp/ccTy7YVh.s:166    .text:00000000000000cc .LVL13
     /tmp/ccTy7YVh.s:186    .text:00000000000000ec .LVL14
     /tmp/ccTy7YVh.s:189    .text:00000000000000f0 .LVL15
     /tmp/ccTy7YVh.s:230    .text:000000000000012c .LVL18
     /tmp/ccTy7YVh.s:260    .text:0000000000000158 .LVL22
     /tmp/ccTy7YVh.s:286    .text:000000000000016c .LVL24
     /tmp/ccTy7YVh.s:256    .text:0000000000000150 .LVL21
     /tmp/ccTy7YVh.s:215    .text:0000000000000118 .LVL16
     /tmp/ccTy7YVh.s:270    .text:0000000000000160 .LVL23
     /tmp/ccTy7YVh.s:225    .text:0000000000000128 .LVL17
     /tmp/ccTy7YVh.s:14     .text:0000000000000000 .LVL0
     /tmp/ccTy7YVh.s:46     .text:000000000000003c .LVL1
     /tmp/ccTy7YVh.s:65     .text:0000000000000054 .LVL2
     /tmp/ccTy7YVh.s:73     .text:0000000000000064 .LVL3
     /tmp/ccTy7YVh.s:130    .text:00000000000000bc .LVL10
     /tmp/ccTy7YVh.s:142    .text:00000000000000c0 .LVL11
     /tmp/ccTy7YVh.s:145    .text:00000000000000c4 .LVL12
     /tmp/ccTy7YVh.s:81     .text:0000000000000074 .LVL4
     /tmp/ccTy7YVh.s:114    .text:00000000000000a4 .LVL7
     /tmp/ccTy7YVh.s:122    .text:00000000000000b0 .LVL9
     /tmp/ccTy7YVh.s:98     .text:0000000000000088 .LVL6
     /tmp/ccTy7YVh.s:438    .text:0000000000000214 .LVL37
     /tmp/ccTy7YVh.s:482    .debug_info:0000000000000000 .Ldebug_info0
     /tmp/ccTy7YVh.s:116    .text:00000000000000a4 .LBE19
     /tmp/ccTy7YVh.s:124    .text:00000000000000b0 .LBB26
     /tmp/ccTy7YVh.s:139    .text:00000000000000bc .LBE26
     /tmp/ccTy7YVh.s:203    .text:0000000000000104 .LBB34
     /tmp/ccTy7YVh.s:243    .text:0000000000000140 .LBE34
     /tmp/ccTy7YVh.s:264    .text:0000000000000158 .LBB41
     /tmp/ccTy7YVh.s:282    .text:0000000000000168 .LBE41
     /tmp/ccTy7YVh.s:237    .text:0000000000000134 .LBE35
     /tmp/ccTy7YVh.s:265    .text:0000000000000158 .LBB40
GAS LISTING /tmp/ccTy7YVh.s 			page 21


     /tmp/ccTy7YVh.s:281    .text:0000000000000168 .LBE40
     /tmp/ccTy7YVh.s:326    .text:00000000000001a0 .LBB51
     /tmp/ccTy7YVh.s:351    .text:00000000000001bc .LBE51
     /tmp/ccTy7YVh.s:363    .text:00000000000001c4 .LBB60
     /tmp/ccTy7YVh.s:397    .text:00000000000001f0 .LBE60
     /tmp/ccTy7YVh.s:344    .text:00000000000001b0 .LBE52
     /tmp/ccTy7YVh.s:365    .text:00000000000001c4 .LBB57
     /tmp/ccTy7YVh.s:396    .text:00000000000001f0 .LBE57
     /tmp/ccTy7YVh.s:466    .gcc_except_table:0000000000000000 .LLSDA40

UNDEFINED SYMBOLS
_ZN3TCB7runningE
__mem_alloc
_ZN3TCB5blockEv
__mem_free
_ZN3TCB7unblockEv
__gxx_personality_v0
