GAS LISTING /tmp/ccKB7W71.s 			page 1


   1              		.file	"consolebuffer.cpp"
   2              		.option pic
   3              		.option norelax
   4              		.text
   5              	.Ltext0:
   6              		.align	2
   7              		.globl	_ZN13ConsoleBufferC2Ev
   9              	_ZN13ConsoleBufferC2Ev:
  10              	.LFB44:
  11              		.file 1 "src/consolebuffer.cpp"
   1:src/consolebuffer.cpp **** //
   2:src/consolebuffer.cpp **** // Created by DjordjeS on 30.7.2022.
   3:src/consolebuffer.cpp **** //
   4:src/consolebuffer.cpp **** #include "../h/consolebuffer.hpp"
   5:src/consolebuffer.cpp **** 
   6:src/consolebuffer.cpp **** ConsoleBuffer::ConsoleBuffer(){
  12              		.loc 1 6 1
  13              		.cfi_startproc
  14              	.LVL0:
  15 0000 130101FE 		addi	sp,sp,-32
  16              		.cfi_def_cfa_offset 32
  17 0004 233C1100 		sd	ra,24(sp)
  18 0008 23388100 		sd	s0,16(sp)
  19 000c 23349100 		sd	s1,8(sp)
  20 0010 23302101 		sd	s2,0(sp)
  21              		.cfi_offset 1, -8
  22              		.cfi_offset 8, -16
  23              		.cfi_offset 9, -24
  24              		.cfi_offset 18, -32
  25 0014 13040102 		addi	s0,sp,32
  26              		.cfi_def_cfa 8, 0
  27 0018 93040500 		mv	s1,a0
  28              	.LBB89:
  29              		.loc 1 6 30 is_stmt 0
  30 001c 2326053E 		sw	zero,1004(a0)
  31 0020 2328053E 		sw	zero,1008(a0)
  32 0024 232A053E 		sw	zero,1012(a0)
   7:src/consolebuffer.cpp ****     capacity = N+1;
  33              		.loc 1 7 5 is_stmt 1
  34              		.loc 1 7 14 is_stmt 0
  35 0028 9307903E 		li	a5,1001
  36 002c 232CF53E 		sw	a5,1016(a0)
   8:src/consolebuffer.cpp ****     new _sem(&mutexP, 1);
  37              		.loc 1 8 5 is_stmt 1
  38              	.LVL1:
  39              	.LBB90:
  40              	.LBB91:
  41              		.file 2 "src/../h/_sem.hpp"
   1:src/../h/_sem.hpp **** //
   2:src/../h/_sem.hpp **** // Created by DjordjeS on 24.7.2022.
   3:src/../h/_sem.hpp **** //
   4:src/../h/_sem.hpp **** 
   5:src/../h/_sem.hpp **** #ifndef _sem_hpp_os
   6:src/../h/_sem.hpp **** #define _sem_hpp_os
   7:src/../h/_sem.hpp **** 
   8:src/../h/_sem.hpp **** #include "syscall_c.h"
   9:src/../h/_sem.hpp **** #include "tcb.hpp"
GAS LISTING /tmp/ccKB7W71.s 			page 2


  10:src/../h/_sem.hpp **** #include "list.hpp"
  11:src/../h/_sem.hpp **** 
  12:src/../h/_sem.hpp **** class _sem{
  13:src/../h/_sem.hpp **** public:
  14:src/../h/_sem.hpp ****     //---[NEW i DELETE]--------------------------------------------
  15:src/../h/_sem.hpp ****     void *operator new(size_t n){return __mem_alloc(n);}
  42              		.loc 2 15 34
  43              		.loc 2 15 52 is_stmt 0
  44 0030 13050002 		li	a0,32
  45              	.LVL2:
  46 0034 97000000 		call	__mem_alloc@plt
  46      E7800000 
  47              	.LVL3:
  48              	.LBE91:
  49              	.LBE90:
  50              	.LBB92:
  51              	.LBB93:
  16:src/../h/_sem.hpp ****     void *operator new[](size_t n){return __mem_alloc(n);}
  17:src/../h/_sem.hpp ****     void operator delete(void *p) {__mem_free(p);}
  18:src/../h/_sem.hpp ****     void operator delete[](void *p) {__mem_free(p);}
  19:src/../h/_sem.hpp ****     //-------------------------------------------------------------
  20:src/../h/_sem.hpp **** 
  21:src/../h/_sem.hpp ****     int value () const { return val; }
  22:src/../h/_sem.hpp **** 
  23:src/../h/_sem.hpp **** private:
  24:src/../h/_sem.hpp ****     _sem(sem_t *handle, unsigned init=1) : val(init){
  52              		.loc 2 24 52
  53 003c 13091000 		li	s2,1
  54 0040 23202501 		sw	s2,0(a0)
  55              	.LVL4:
  56              	.LBB94:
  57              	.LBB95:
  58              		.file 3 "src/../h/../h/list.hpp"
   1:src/../h/../h/list.hpp **** //
   2:src/../h/../h/list.hpp **** // Created by DjordjeS on 20.7.2022.
   3:src/../h/../h/list.hpp **** //
   4:src/../h/../h/list.hpp **** 
   5:src/../h/../h/list.hpp **** #ifndef OS1_VEZBE07_RISCV_CONTEXT_SWITCH_2_INTERRUPT_LIST_HPP
   6:src/../h/../h/list.hpp **** #define OS1_VEZBE07_RISCV_CONTEXT_SWITCH_2_INTERRUPT_LIST_HPP
   7:src/../h/../h/list.hpp **** 
   8:src/../h/../h/list.hpp **** #include "../lib/hw.h"
   9:src/../h/../h/list.hpp **** #include "../lib/mem.h"
  10:src/../h/../h/list.hpp **** 
  11:src/../h/../h/list.hpp **** template<typename T>
  12:src/../h/../h/list.hpp **** class List
  13:src/../h/../h/list.hpp **** {
  14:src/../h/../h/list.hpp **** protected:
  15:src/../h/../h/list.hpp ****     struct Elem{
  16:src/../h/../h/list.hpp ****         //---[NEW i DELETE]--------------------------------------------
  17:src/../h/../h/list.hpp ****         void *operator new(size_t n){return __mem_alloc(n);}
  18:src/../h/../h/list.hpp ****         void *operator new[](size_t n){return __mem_alloc(n);}
  19:src/../h/../h/list.hpp ****         void operator delete(void *p) {__mem_free(p);}
  20:src/../h/../h/list.hpp ****         void operator delete[](void *p) {__mem_free(p);}
  21:src/../h/../h/list.hpp ****         //-------------------------------------------------------------
  22:src/../h/../h/list.hpp **** 
  23:src/../h/../h/list.hpp ****         T *data;
  24:src/../h/../h/list.hpp ****         Elem *next;
GAS LISTING /tmp/ccKB7W71.s 			page 3


  25:src/../h/../h/list.hpp **** 
  26:src/../h/../h/list.hpp ****         Elem(T *data, Elem *next) : data(data), next(next) {}
  27:src/../h/../h/list.hpp ****     };
  28:src/../h/../h/list.hpp **** 
  29:src/../h/../h/list.hpp ****     Elem *head, *tail;
  30:src/../h/../h/list.hpp ****     unsigned length;
  31:src/../h/../h/list.hpp ****     friend class TCB;
  32:src/../h/../h/list.hpp ****     friend class SleepingThread;
  33:src/../h/../h/list.hpp **** 
  34:src/../h/../h/list.hpp **** public:
  35:src/../h/../h/list.hpp ****     //---[NEW i DELETE]--------------------------------------------
  36:src/../h/../h/list.hpp ****     void *operator new(size_t n){return __mem_alloc(n);}
  37:src/../h/../h/list.hpp ****     void *operator new[](size_t n){return __mem_alloc(n);}
  38:src/../h/../h/list.hpp ****     void operator delete(void *p) {__mem_free(p);}
  39:src/../h/../h/list.hpp ****     void operator delete[](void *p) {__mem_free(p);}
  40:src/../h/../h/list.hpp ****     //-------------------------------------------------------------
  41:src/../h/../h/list.hpp ****     List() : head(0), tail(0), length(0) {}
  59              		.loc 3 41 40
  60 0044 23340500 		sd	zero,8(a0)
  61 0048 23380500 		sd	zero,16(a0)
  62 004c 232C0500 		sw	zero,24(a0)
  63              	.LVL5:
  64              	.LBE95:
  65              	.LBE94:
  25:src/../h/_sem.hpp ****         *handle = this;
  66              		.loc 2 25 9 is_stmt 1
  67              		.loc 2 25 17 is_stmt 0
  68 0050 23B0A440 		sd	a0,1024(s1)
  26:src/../h/_sem.hpp ****         active=true;
  69              		.loc 2 26 9 is_stmt 1
  70              		.loc 2 26 15 is_stmt 0
  71 0054 23022501 		sb	s2,4(a0)
  72              	.LVL6:
  73              	.LBE93:
  74              	.LBE92:
   9:src/consolebuffer.cpp ****     new _sem(&mutexC, 1);
  75              		.loc 1 9 5 is_stmt 1
  76              	.LBB96:
  77              	.LBB97:
  15:src/../h/_sem.hpp ****     void *operator new[](size_t n){return __mem_alloc(n);}
  78              		.loc 2 15 34
  15:src/../h/_sem.hpp ****     void *operator new[](size_t n){return __mem_alloc(n);}
  79              		.loc 2 15 52 is_stmt 0
  80 0058 13050002 		li	a0,32
  81 005c 97000000 		call	__mem_alloc@plt
  81      E7800000 
  82              	.LVL7:
  83              	.LBE97:
  84              	.LBE96:
  85              	.LBB98:
  86              	.LBB99:
  24:src/../h/_sem.hpp ****         *handle = this;
  87              		.loc 2 24 52
  88 0064 23202501 		sw	s2,0(a0)
  89              	.LVL8:
  90              	.LBB100:
  91              	.LBB101:
GAS LISTING /tmp/ccKB7W71.s 			page 4


  92              		.loc 3 41 40
  93 0068 23340500 		sd	zero,8(a0)
  94 006c 23380500 		sd	zero,16(a0)
  95 0070 232C0500 		sw	zero,24(a0)
  96              	.LVL9:
  97              	.LBE101:
  98              	.LBE100:
  25:src/../h/_sem.hpp ****         active=true;
  99              		.loc 2 25 9 is_stmt 1
  25:src/../h/_sem.hpp ****         active=true;
 100              		.loc 2 25 17 is_stmt 0
 101 0074 23B4A440 		sd	a0,1032(s1)
 102              		.loc 2 26 9 is_stmt 1
 103              		.loc 2 26 15 is_stmt 0
 104 0078 23022501 		sb	s2,4(a0)
 105              	.LVL10:
 106              	.LBE99:
 107              	.LBE98:
  10:src/consolebuffer.cpp ****     new _sem(&empty, 0);
 108              		.loc 1 10 5 is_stmt 1
 109              	.LBB102:
 110              	.LBB103:
  15:src/../h/_sem.hpp ****     void *operator new[](size_t n){return __mem_alloc(n);}
 111              		.loc 2 15 34
  15:src/../h/_sem.hpp ****     void *operator new[](size_t n){return __mem_alloc(n);}
 112              		.loc 2 15 52 is_stmt 0
 113 007c 13050002 		li	a0,32
 114 0080 97000000 		call	__mem_alloc@plt
 114      E7800000 
 115              	.LVL11:
 116              	.LBE103:
 117              	.LBE102:
 118              	.LBB104:
 119              	.LBB105:
  24:src/../h/_sem.hpp ****         *handle = this;
 120              		.loc 2 24 52
 121 0088 23200500 		sw	zero,0(a0)
 122              	.LVL12:
 123              	.LBB106:
 124              	.LBB107:
 125              		.loc 3 41 40
 126 008c 23340500 		sd	zero,8(a0)
 127 0090 23380500 		sd	zero,16(a0)
 128 0094 232C0500 		sw	zero,24(a0)
 129              	.LVL13:
 130              	.LBE107:
 131              	.LBE106:
  25:src/../h/_sem.hpp ****         active=true;
 132              		.loc 2 25 9 is_stmt 1
  25:src/../h/_sem.hpp ****         active=true;
 133              		.loc 2 25 17 is_stmt 0
 134 0098 23B8A440 		sd	a0,1040(s1)
 135              		.loc 2 26 9 is_stmt 1
 136              		.loc 2 26 15 is_stmt 0
 137 009c 23022501 		sb	s2,4(a0)
 138              	.LVL14:
 139              	.LBE105:
GAS LISTING /tmp/ccKB7W71.s 			page 5


 140              	.LBE104:
  11:src/consolebuffer.cpp ****     new _sem(&full, N);
 141              		.loc 1 11 5 is_stmt 1
 142              	.LBB108:
 143              	.LBB109:
  15:src/../h/_sem.hpp ****     void *operator new[](size_t n){return __mem_alloc(n);}
 144              		.loc 2 15 34
  15:src/../h/_sem.hpp ****     void *operator new[](size_t n){return __mem_alloc(n);}
 145              		.loc 2 15 52 is_stmt 0
 146 00a0 13050002 		li	a0,32
 147 00a4 97000000 		call	__mem_alloc@plt
 147      E7800000 
 148              	.LVL15:
 149              	.LBE109:
 150              	.LBE108:
 151              	.LBB110:
 152              	.LBB111:
  24:src/../h/_sem.hpp ****         *handle = this;
 153              		.loc 2 24 52
 154 00ac 9307803E 		li	a5,1000
 155 00b0 2320F500 		sw	a5,0(a0)
 156              	.LVL16:
 157              	.LBB112:
 158              	.LBB113:
 159              		.loc 3 41 40
 160 00b4 23340500 		sd	zero,8(a0)
 161 00b8 23380500 		sd	zero,16(a0)
 162 00bc 232C0500 		sw	zero,24(a0)
 163              	.LVL17:
 164              	.LBE113:
 165              	.LBE112:
  25:src/../h/_sem.hpp ****         active=true;
 166              		.loc 2 25 9 is_stmt 1
  25:src/../h/_sem.hpp ****         active=true;
 167              		.loc 2 25 17 is_stmt 0
 168 00c0 23BCA440 		sd	a0,1048(s1)
 169              		.loc 2 26 9 is_stmt 1
 170              		.loc 2 26 15 is_stmt 0
 171 00c4 23022501 		sb	s2,4(a0)
 172              	.LVL18:
 173              	.LBE111:
 174              	.LBE110:
 175              	.LBE89:
  12:src/consolebuffer.cpp **** }
 176              		.loc 1 12 1
 177 00c8 83308101 		ld	ra,24(sp)
 178              		.cfi_restore 1
 179 00cc 03340101 		ld	s0,16(sp)
 180              		.cfi_restore 8
 181              		.cfi_def_cfa 2, 32
 182 00d0 83348100 		ld	s1,8(sp)
 183              		.cfi_restore 9
 184              	.LVL19:
 185 00d4 03390100 		ld	s2,0(sp)
 186              		.cfi_restore 18
 187 00d8 13010102 		addi	sp,sp,32
 188              		.cfi_def_cfa_offset 0
GAS LISTING /tmp/ccKB7W71.s 			page 6


 189 00dc 67800000 		jr	ra
 190              		.cfi_endproc
 191              	.LFE44:
 193              		.globl	_ZN13ConsoleBufferC1Ev
 194              		.set	_ZN13ConsoleBufferC1Ev,_ZN13ConsoleBufferC2Ev
 195              		.align	2
 196              		.globl	_ZN13ConsoleBufferC2Ei
 198              	_ZN13ConsoleBufferC2Ei:
 199              	.LFB47:
  13:src/consolebuffer.cpp **** 
  14:src/consolebuffer.cpp **** ConsoleBuffer::ConsoleBuffer(int cap){
 200              		.loc 1 14 1 is_stmt 1
 201              		.cfi_startproc
 202              	.LVL20:
 203 00e0 130101FE 		addi	sp,sp,-32
 204              		.cfi_def_cfa_offset 32
 205 00e4 233C1100 		sd	ra,24(sp)
 206 00e8 23388100 		sd	s0,16(sp)
 207 00ec 23349100 		sd	s1,8(sp)
 208 00f0 23302101 		sd	s2,0(sp)
 209              		.cfi_offset 1, -8
 210              		.cfi_offset 8, -16
 211              		.cfi_offset 9, -24
 212              		.cfi_offset 18, -32
 213 00f4 13040102 		addi	s0,sp,32
 214              		.cfi_def_cfa 8, 0
 215 00f8 93040500 		mv	s1,a0
 216              	.LBB114:
 217              		.loc 1 14 37 is_stmt 0
 218 00fc 2326053E 		sw	zero,1004(a0)
 219 0100 2328053E 		sw	zero,1008(a0)
 220 0104 232A053E 		sw	zero,1012(a0)
  15:src/consolebuffer.cpp ****     if(cap > N || cap<=0){
 221              		.loc 1 15 5 is_stmt 1
 222              		.loc 1 15 16 is_stmt 0
 223 0108 1B87F5FF 		addiw	a4,a1,-1
 224              		.loc 1 15 5
 225 010c 9307703E 		li	a5,999
 226 0110 63F0E70C 		bleu	a4,a5,.L4
  16:src/consolebuffer.cpp ****         capacity=N+1;
 227              		.loc 1 16 9 is_stmt 1
 228              		.loc 1 16 17 is_stmt 0
 229 0114 9307903E 		li	a5,1001
 230 0118 232CF53E 		sw	a5,1016(a0)
  17:src/consolebuffer.cpp ****         new _sem(&full, N);
 231              		.loc 1 17 9 is_stmt 1
 232              	.LVL21:
 233              	.LBB115:
 234              	.LBB116:
  15:src/../h/_sem.hpp ****     void *operator new[](size_t n){return __mem_alloc(n);}
 235              		.loc 2 15 34
  15:src/../h/_sem.hpp ****     void *operator new[](size_t n){return __mem_alloc(n);}
 236              		.loc 2 15 52 is_stmt 0
 237 011c 13050002 		li	a0,32
 238              	.LVL22:
 239 0120 97000000 		call	__mem_alloc@plt
 239      E7800000 
GAS LISTING /tmp/ccKB7W71.s 			page 7


 240              	.LVL23:
 241              	.LBE116:
 242              	.LBE115:
 243              	.LBB117:
 244              	.LBB118:
 245              	.LBB119:
  24:src/../h/_sem.hpp ****         *handle = this;
 246              		.loc 2 24 52
 247 0128 9307803E 		li	a5,1000
 248 012c 2320F500 		sw	a5,0(a0)
 249              	.LVL24:
 250              	.LBB120:
 251              	.LBB121:
 252              		.loc 3 41 40
 253 0130 23340500 		sd	zero,8(a0)
 254 0134 23380500 		sd	zero,16(a0)
 255 0138 232C0500 		sw	zero,24(a0)
 256              	.LVL25:
 257              	.LBE121:
 258              	.LBE120:
  25:src/../h/_sem.hpp ****         active=true;
 259              		.loc 2 25 9 is_stmt 1
  25:src/../h/_sem.hpp ****         active=true;
 260              		.loc 2 25 17 is_stmt 0
 261 013c 23BCA440 		sd	a0,1048(s1)
 262              		.loc 2 26 9 is_stmt 1
 263              		.loc 2 26 15 is_stmt 0
 264 0140 93071000 		li	a5,1
 265 0144 2302F500 		sb	a5,4(a0)
 266              	.LVL26:
 267              	.L5:
 268              	.LBE119:
 269              	.LBE118:
 270              	.LBE117:
  18:src/consolebuffer.cpp ****     }
  19:src/consolebuffer.cpp ****     else{
  20:src/consolebuffer.cpp ****         capacity=cap+1;
  21:src/consolebuffer.cpp ****         new _sem(&full, cap);
  22:src/consolebuffer.cpp ****     }
  23:src/consolebuffer.cpp ****     new _sem(&mutexP, 1);
 271              		.loc 1 23 5 is_stmt 1
 272              	.LBB122:
 273              	.LBB123:
  15:src/../h/_sem.hpp ****     void *operator new[](size_t n){return __mem_alloc(n);}
 274              		.loc 2 15 34
  15:src/../h/_sem.hpp ****     void *operator new[](size_t n){return __mem_alloc(n);}
 275              		.loc 2 15 52 is_stmt 0
 276 0148 13050002 		li	a0,32
 277 014c 97000000 		call	__mem_alloc@plt
 277      E7800000 
 278              	.LVL27:
 279              	.LBE123:
 280              	.LBE122:
 281              	.LBB124:
 282              	.LBB125:
  24:src/../h/_sem.hpp ****         *handle = this;
 283              		.loc 2 24 52
GAS LISTING /tmp/ccKB7W71.s 			page 8


 284 0154 13091000 		li	s2,1
 285 0158 23202501 		sw	s2,0(a0)
 286              	.LVL28:
 287              	.LBB126:
 288              	.LBB127:
 289              		.loc 3 41 40
 290 015c 23340500 		sd	zero,8(a0)
 291 0160 23380500 		sd	zero,16(a0)
 292 0164 232C0500 		sw	zero,24(a0)
 293              	.LVL29:
 294              	.LBE127:
 295              	.LBE126:
  25:src/../h/_sem.hpp ****         active=true;
 296              		.loc 2 25 9 is_stmt 1
  25:src/../h/_sem.hpp ****         active=true;
 297              		.loc 2 25 17 is_stmt 0
 298 0168 23B0A440 		sd	a0,1024(s1)
 299              		.loc 2 26 9 is_stmt 1
 300              		.loc 2 26 15 is_stmt 0
 301 016c 23022501 		sb	s2,4(a0)
 302              	.LVL30:
 303              	.LBE125:
 304              	.LBE124:
  24:src/consolebuffer.cpp ****     new _sem(&mutexC, 1);
 305              		.loc 1 24 5 is_stmt 1
 306              	.LBB128:
 307              	.LBB129:
  15:src/../h/_sem.hpp ****     void *operator new[](size_t n){return __mem_alloc(n);}
 308              		.loc 2 15 34
  15:src/../h/_sem.hpp ****     void *operator new[](size_t n){return __mem_alloc(n);}
 309              		.loc 2 15 52 is_stmt 0
 310 0170 13050002 		li	a0,32
 311 0174 97000000 		call	__mem_alloc@plt
 311      E7800000 
 312              	.LVL31:
 313              	.LBE129:
 314              	.LBE128:
 315              	.LBB130:
 316              	.LBB131:
  24:src/../h/_sem.hpp ****         *handle = this;
 317              		.loc 2 24 52
 318 017c 23202501 		sw	s2,0(a0)
 319              	.LVL32:
 320              	.LBB132:
 321              	.LBB133:
 322              		.loc 3 41 40
 323 0180 23340500 		sd	zero,8(a0)
 324 0184 23380500 		sd	zero,16(a0)
 325 0188 232C0500 		sw	zero,24(a0)
 326              	.LVL33:
 327              	.LBE133:
 328              	.LBE132:
  25:src/../h/_sem.hpp ****         active=true;
 329              		.loc 2 25 9 is_stmt 1
  25:src/../h/_sem.hpp ****         active=true;
 330              		.loc 2 25 17 is_stmt 0
 331 018c 23B4A440 		sd	a0,1032(s1)
GAS LISTING /tmp/ccKB7W71.s 			page 9


 332              		.loc 2 26 9 is_stmt 1
 333              		.loc 2 26 15 is_stmt 0
 334 0190 23022501 		sb	s2,4(a0)
 335              	.LVL34:
 336              	.LBE131:
 337              	.LBE130:
  25:src/consolebuffer.cpp ****     new _sem(&empty, 0);
 338              		.loc 1 25 5 is_stmt 1
 339              	.LBB134:
 340              	.LBB135:
  15:src/../h/_sem.hpp ****     void *operator new[](size_t n){return __mem_alloc(n);}
 341              		.loc 2 15 34
  15:src/../h/_sem.hpp ****     void *operator new[](size_t n){return __mem_alloc(n);}
 342              		.loc 2 15 52 is_stmt 0
 343 0194 13050002 		li	a0,32
 344 0198 97000000 		call	__mem_alloc@plt
 344      E7800000 
 345              	.LVL35:
 346              	.LBE135:
 347              	.LBE134:
 348              	.LBB136:
 349              	.LBB137:
  24:src/../h/_sem.hpp ****         *handle = this;
 350              		.loc 2 24 52
 351 01a0 23200500 		sw	zero,0(a0)
 352              	.LVL36:
 353              	.LBB138:
 354              	.LBB139:
 355              		.loc 3 41 40
 356 01a4 23340500 		sd	zero,8(a0)
 357 01a8 23380500 		sd	zero,16(a0)
 358 01ac 232C0500 		sw	zero,24(a0)
 359              	.LVL37:
 360              	.LBE139:
 361              	.LBE138:
  25:src/../h/_sem.hpp ****         active=true;
 362              		.loc 2 25 9 is_stmt 1
  25:src/../h/_sem.hpp ****         active=true;
 363              		.loc 2 25 17 is_stmt 0
 364 01b0 23B8A440 		sd	a0,1040(s1)
 365              		.loc 2 26 9 is_stmt 1
 366              		.loc 2 26 15 is_stmt 0
 367 01b4 23022501 		sb	s2,4(a0)
 368              	.LVL38:
 369              	.LBE137:
 370              	.LBE136:
 371              	.LBE114:
  26:src/consolebuffer.cpp **** }
 372              		.loc 1 26 1
 373 01b8 83308101 		ld	ra,24(sp)
 374              		.cfi_remember_state
 375              		.cfi_restore 1
 376 01bc 03340101 		ld	s0,16(sp)
 377              		.cfi_restore 8
 378              		.cfi_def_cfa 2, 32
 379 01c0 83348100 		ld	s1,8(sp)
 380              		.cfi_restore 9
GAS LISTING /tmp/ccKB7W71.s 			page 10


 381              	.LVL39:
 382 01c4 03390100 		ld	s2,0(sp)
 383              		.cfi_restore 18
 384 01c8 13010102 		addi	sp,sp,32
 385              		.cfi_def_cfa_offset 0
 386 01cc 67800000 		jr	ra
 387              	.LVL40:
 388              	.L4:
 389              		.cfi_restore_state
 390 01d0 13890500 		mv	s2,a1
 391              	.LBB147:
  20:src/consolebuffer.cpp ****         new _sem(&full, cap);
 392              		.loc 1 20 9 is_stmt 1
  20:src/consolebuffer.cpp ****         new _sem(&full, cap);
 393              		.loc 1 20 21 is_stmt 0
 394 01d4 9B871500 		addiw	a5,a1,1
  20:src/consolebuffer.cpp ****         new _sem(&full, cap);
 395              		.loc 1 20 17
 396 01d8 232CF53E 		sw	a5,1016(a0)
  21:src/consolebuffer.cpp ****     }
 397              		.loc 1 21 9 is_stmt 1
 398              	.LVL41:
 399              	.LBB140:
 400              	.LBB141:
  15:src/../h/_sem.hpp ****     void *operator new[](size_t n){return __mem_alloc(n);}
 401              		.loc 2 15 34
  15:src/../h/_sem.hpp ****     void *operator new[](size_t n){return __mem_alloc(n);}
 402              		.loc 2 15 52 is_stmt 0
 403 01dc 13050002 		li	a0,32
 404 01e0 97000000 		call	__mem_alloc@plt
 404      E7800000 
 405              	.LVL42:
 406              	.LBE141:
 407              	.LBE140:
 408              	.LBB142:
 409              	.LBB143:
 410              	.LBB144:
  24:src/../h/_sem.hpp ****         *handle = this;
 411              		.loc 2 24 52
 412 01e8 23202501 		sw	s2,0(a0)
 413              	.LVL43:
 414              	.LBB145:
 415              	.LBB146:
 416              		.loc 3 41 40
 417 01ec 23340500 		sd	zero,8(a0)
 418 01f0 23380500 		sd	zero,16(a0)
 419 01f4 232C0500 		sw	zero,24(a0)
 420              	.LVL44:
 421              	.LBE146:
 422              	.LBE145:
  25:src/../h/_sem.hpp ****         active=true;
 423              		.loc 2 25 9 is_stmt 1
  25:src/../h/_sem.hpp ****         active=true;
 424              		.loc 2 25 17 is_stmt 0
 425 01f8 23BCA440 		sd	a0,1048(s1)
 426              		.loc 2 26 9 is_stmt 1
 427              		.loc 2 26 15 is_stmt 0
GAS LISTING /tmp/ccKB7W71.s 			page 11


 428 01fc 93071000 		li	a5,1
 429 0200 2302F500 		sb	a5,4(a0)
 430              	.LBE144:
  27:src/../h/_sem.hpp ****     }
 431              		.loc 2 27 5
 432 0204 6FF05FF4 		j	.L5
 433              	.LBE143:
 434              	.LBE142:
 435              	.LBE147:
 436              		.cfi_endproc
 437              	.LFE47:
 439              		.globl	_ZN13ConsoleBufferC1Ei
 440              		.set	_ZN13ConsoleBufferC1Ei,_ZN13ConsoleBufferC2Ei
 441              		.align	2
 442              		.globl	_ZN13ConsoleBufferD2Ev
 444              	_ZN13ConsoleBufferD2Ev:
 445              	.LFB50:
  27:src/consolebuffer.cpp **** 
  28:src/consolebuffer.cpp **** ConsoleBuffer::~ConsoleBuffer() {
 446              		.loc 1 28 1 is_stmt 1
 447              		.cfi_startproc
 448              		.cfi_personality 0x9b,DW.ref.__gxx_personality_v0
 449              		.cfi_lsda 0x1b,.LLSDA50
 450              	.LVL45:
 451 0208 130101FE 		addi	sp,sp,-32
 452              		.cfi_def_cfa_offset 32
 453 020c 233C1100 		sd	ra,24(sp)
 454 0210 23388100 		sd	s0,16(sp)
 455 0214 23349100 		sd	s1,8(sp)
 456 0218 23302101 		sd	s2,0(sp)
 457              		.cfi_offset 1, -8
 458              		.cfi_offset 8, -16
 459              		.cfi_offset 9, -24
 460              		.cfi_offset 18, -32
 461 021c 13040102 		addi	s0,sp,32
 462              		.cfi_def_cfa 8, 0
 463 0220 93040500 		mv	s1,a0
 464              	.LBB148:
  29:src/consolebuffer.cpp ****     delete mutexP;
 465              		.loc 1 29 5
 466              		.loc 1 29 12 is_stmt 0
 467 0224 03390540 		ld	s2,1024(a0)
 468              		.loc 1 29 18
 469 0228 630E0900 		beqz	s2,.L8
 470              		.loc 1 29 12 discriminator 1
 471 022c 13050900 		mv	a0,s2
 472              	.LVL46:
 473 0230 97000000 		call	_ZN4_semD1Ev@plt
 473      E7800000 
 474              	.LVL47:
 475              	.LBB149:
 476              	.LBB150:
  17:src/../h/_sem.hpp ****     void operator delete[](void *p) {__mem_free(p);}
 477              		.loc 2 17 36 is_stmt 1 discriminator 1
  17:src/../h/_sem.hpp ****     void operator delete[](void *p) {__mem_free(p);}
 478              		.loc 2 17 46 is_stmt 0 discriminator 1
 479 0238 13050900 		mv	a0,s2
GAS LISTING /tmp/ccKB7W71.s 			page 12


 480 023c 97000000 		call	__mem_free@plt
 480      E7800000 
 481              	.LVL48:
 482              	.L8:
 483              	.LBE150:
 484              	.LBE149:
  30:src/consolebuffer.cpp ****     delete mutexC;
 485              		.loc 1 30 5 is_stmt 1
 486              		.loc 1 30 12 is_stmt 0
 487 0244 03B98440 		ld	s2,1032(s1)
 488              		.loc 1 30 18
 489 0248 630E0900 		beqz	s2,.L9
 490              		.loc 1 30 12 discriminator 1
 491 024c 13050900 		mv	a0,s2
 492 0250 97000000 		call	_ZN4_semD1Ev@plt
 492      E7800000 
 493              	.LVL49:
 494              	.LBB151:
 495              	.LBB152:
  17:src/../h/_sem.hpp ****     void operator delete[](void *p) {__mem_free(p);}
 496              		.loc 2 17 36 is_stmt 1 discriminator 1
  17:src/../h/_sem.hpp ****     void operator delete[](void *p) {__mem_free(p);}
 497              		.loc 2 17 46 is_stmt 0 discriminator 1
 498 0258 13050900 		mv	a0,s2
 499 025c 97000000 		call	__mem_free@plt
 499      E7800000 
 500              	.LVL50:
 501              	.L9:
 502              	.LBE152:
 503              	.LBE151:
  31:src/consolebuffer.cpp ****     delete empty;
 504              		.loc 1 31 5 is_stmt 1
 505              		.loc 1 31 12 is_stmt 0
 506 0264 03B90441 		ld	s2,1040(s1)
 507              		.loc 1 31 17
 508 0268 630E0900 		beqz	s2,.L10
 509              		.loc 1 31 12 discriminator 1
 510 026c 13050900 		mv	a0,s2
 511 0270 97000000 		call	_ZN4_semD1Ev@plt
 511      E7800000 
 512              	.LVL51:
 513              	.LBB153:
 514              	.LBB154:
  17:src/../h/_sem.hpp ****     void operator delete[](void *p) {__mem_free(p);}
 515              		.loc 2 17 36 is_stmt 1 discriminator 1
  17:src/../h/_sem.hpp ****     void operator delete[](void *p) {__mem_free(p);}
 516              		.loc 2 17 46 is_stmt 0 discriminator 1
 517 0278 13050900 		mv	a0,s2
 518 027c 97000000 		call	__mem_free@plt
 518      E7800000 
 519              	.LVL52:
 520              	.L10:
 521              	.LBE154:
 522              	.LBE153:
  32:src/consolebuffer.cpp ****     delete full;
 523              		.loc 1 32 5 is_stmt 1
 524              		.loc 1 32 12 is_stmt 0
GAS LISTING /tmp/ccKB7W71.s 			page 13


 525 0284 83B48441 		ld	s1,1048(s1)
 526              	.LVL53:
 527              		.loc 1 32 16
 528 0288 638E0400 		beqz	s1,.L7
 529              		.loc 1 32 12 discriminator 1
 530 028c 13850400 		mv	a0,s1
 531 0290 97000000 		call	_ZN4_semD1Ev@plt
 531      E7800000 
 532              	.LVL54:
 533              	.LBB155:
 534              	.LBB156:
  17:src/../h/_sem.hpp ****     void operator delete[](void *p) {__mem_free(p);}
 535              		.loc 2 17 36 is_stmt 1 discriminator 1
  17:src/../h/_sem.hpp ****     void operator delete[](void *p) {__mem_free(p);}
 536              		.loc 2 17 46 is_stmt 0 discriminator 1
 537 0298 13850400 		mv	a0,s1
 538 029c 97000000 		call	__mem_free@plt
 538      E7800000 
 539              	.LVL55:
 540              	.L7:
 541              	.LBE156:
 542              	.LBE155:
 543              	.LBE148:
  33:src/consolebuffer.cpp **** }
 544              		.loc 1 33 1
 545 02a4 83308101 		ld	ra,24(sp)
 546              		.cfi_restore 1
 547 02a8 03340101 		ld	s0,16(sp)
 548              		.cfi_restore 8
 549              		.cfi_def_cfa 2, 32
 550 02ac 83348100 		ld	s1,8(sp)
 551              		.cfi_restore 9
 552 02b0 03390100 		ld	s2,0(sp)
 553              		.cfi_restore 18
 554 02b4 13010102 		addi	sp,sp,32
 555              		.cfi_def_cfa_offset 0
 556 02b8 67800000 		jr	ra
 557              		.cfi_endproc
 558              	.LFE50:
 559              		.globl	__gxx_personality_v0
 560              		.section	.gcc_except_table,"a",@progbits
 561              	.LLSDA50:
 562 0000 FF       		.byte	0xff
 563 0001 FF       		.byte	0xff
 564 0002 03       		.byte	0x3
 565 0003 00       		.byte	0
 566              		.text
 568              		.globl	_ZN13ConsoleBufferD1Ev
 569              		.set	_ZN13ConsoleBufferD1Ev,_ZN13ConsoleBufferD2Ev
 570              		.align	2
 571              		.globl	_ZN13ConsoleBuffer3putEc
 573              	_ZN13ConsoleBuffer3putEc:
 574              	.LFB52:
  34:src/consolebuffer.cpp **** 
  35:src/consolebuffer.cpp **** void ConsoleBuffer::put(char new_char) {
 575              		.loc 1 35 40 is_stmt 1
 576              		.cfi_startproc
GAS LISTING /tmp/ccKB7W71.s 			page 14


 577              	.LVL56:
 578 02bc 130101FE 		addi	sp,sp,-32
 579              		.cfi_def_cfa_offset 32
 580 02c0 233C1100 		sd	ra,24(sp)
 581 02c4 23388100 		sd	s0,16(sp)
 582 02c8 23349100 		sd	s1,8(sp)
 583 02cc 23302101 		sd	s2,0(sp)
 584              		.cfi_offset 1, -8
 585              		.cfi_offset 8, -16
 586              		.cfi_offset 9, -24
 587              		.cfi_offset 18, -32
 588 02d0 13040102 		addi	s0,sp,32
 589              		.cfi_def_cfa 8, 0
 590 02d4 93040500 		mv	s1,a0
 591 02d8 13890500 		mv	s2,a1
  36:src/consolebuffer.cpp ****     sem_wait(full);
 592              		.loc 1 36 5
 593              		.loc 1 36 13 is_stmt 0
 594 02dc 03358541 		ld	a0,1048(a0)
 595              	.LVL57:
 596 02e0 97000000 		call	_Z8sem_waitP4_sem@plt
 596      E7800000 
 597              	.LVL58:
  37:src/consolebuffer.cpp ****     sem_wait(mutexP);
 598              		.loc 1 37 5 is_stmt 1
 599              		.loc 1 37 13 is_stmt 0
 600 02e8 03B50440 		ld	a0,1024(s1)
 601 02ec 97000000 		call	_Z8sem_waitP4_sem@plt
 601      E7800000 
 602              	.LVL59:
  38:src/consolebuffer.cpp ****     buffer[rear] = new_char;
 603              		.loc 1 38 5 is_stmt 1
 604              		.loc 1 38 12 is_stmt 0
 605 02f4 83A7043F 		lw	a5,1008(s1)
 606              		.loc 1 38 18
 607 02f8 3387F400 		add	a4,s1,a5
 608 02fc 23002701 		sb	s2,0(a4)
  39:src/consolebuffer.cpp ****     rear = (rear + 1) % capacity;
 609              		.loc 1 39 5 is_stmt 1
 610              		.loc 1 39 18 is_stmt 0
 611 0300 9B871700 		addiw	a5,a5,1
 612              		.loc 1 39 25
 613 0304 03A7843F 		lw	a4,1016(s1)
 614              		.loc 1 39 23
 615 0308 BBE7E702 		remw	a5,a5,a4
 616              		.loc 1 39 10
 617 030c 23A8F43E 		sw	a5,1008(s1)
  40:src/consolebuffer.cpp ****     size=size+1;
 618              		.loc 1 40 5 is_stmt 1
 619              		.loc 1 40 10 is_stmt 0
 620 0310 83A7443F 		lw	a5,1012(s1)
 621              		.loc 1 40 14
 622 0314 9B871700 		addiw	a5,a5,1
 623              		.loc 1 40 9
 624 0318 23AAF43E 		sw	a5,1012(s1)
  41:src/consolebuffer.cpp ****     sem_signal(mutexP);
 625              		.loc 1 41 5 is_stmt 1
GAS LISTING /tmp/ccKB7W71.s 			page 15


 626              		.loc 1 41 15 is_stmt 0
 627 031c 03B50440 		ld	a0,1024(s1)
 628 0320 97000000 		call	_Z10sem_signalP4_sem@plt
 628      E7800000 
 629              	.LVL60:
  42:src/consolebuffer.cpp ****     sem_signal(empty);
 630              		.loc 1 42 5 is_stmt 1
 631              		.loc 1 42 15 is_stmt 0
 632 0328 03B50441 		ld	a0,1040(s1)
 633 032c 97000000 		call	_Z10sem_signalP4_sem@plt
 633      E7800000 
 634              	.LVL61:
  43:src/consolebuffer.cpp **** }
 635              		.loc 1 43 1
 636 0334 83308101 		ld	ra,24(sp)
 637              		.cfi_restore 1
 638 0338 03340101 		ld	s0,16(sp)
 639              		.cfi_restore 8
 640              		.cfi_def_cfa 2, 32
 641 033c 83348100 		ld	s1,8(sp)
 642              		.cfi_restore 9
 643              	.LVL62:
 644 0340 03390100 		ld	s2,0(sp)
 645              		.cfi_restore 18
 646 0344 13010102 		addi	sp,sp,32
 647              		.cfi_def_cfa_offset 0
 648 0348 67800000 		jr	ra
 649              		.cfi_endproc
 650              	.LFE52:
 652              		.align	2
 653              		.globl	_ZN13ConsoleBuffer4takeEv
 655              	_ZN13ConsoleBuffer4takeEv:
 656              	.LFB53:
  44:src/consolebuffer.cpp **** 
  45:src/consolebuffer.cpp **** char ConsoleBuffer::take() {
 657              		.loc 1 45 28 is_stmt 1
 658              		.cfi_startproc
 659              	.LVL63:
 660 034c 130101FE 		addi	sp,sp,-32
 661              		.cfi_def_cfa_offset 32
 662 0350 233C1100 		sd	ra,24(sp)
 663 0354 23388100 		sd	s0,16(sp)
 664 0358 23349100 		sd	s1,8(sp)
 665 035c 23302101 		sd	s2,0(sp)
 666              		.cfi_offset 1, -8
 667              		.cfi_offset 8, -16
 668              		.cfi_offset 9, -24
 669              		.cfi_offset 18, -32
 670 0360 13040102 		addi	s0,sp,32
 671              		.cfi_def_cfa 8, 0
 672 0364 93040500 		mv	s1,a0
  46:src/consolebuffer.cpp ****     sem_wait(empty);
 673              		.loc 1 46 5
 674              		.loc 1 46 13 is_stmt 0
 675 0368 03350541 		ld	a0,1040(a0)
 676              	.LVL64:
 677 036c 97000000 		call	_Z8sem_waitP4_sem@plt
GAS LISTING /tmp/ccKB7W71.s 			page 16


 677      E7800000 
 678              	.LVL65:
  47:src/consolebuffer.cpp ****     sem_wait(mutexC);
 679              		.loc 1 47 5 is_stmt 1
 680              		.loc 1 47 13 is_stmt 0
 681 0374 03B58440 		ld	a0,1032(s1)
 682 0378 97000000 		call	_Z8sem_waitP4_sem@plt
 682      E7800000 
 683              	.LVL66:
  48:src/consolebuffer.cpp ****     char c=buffer[front];
 684              		.loc 1 48 5 is_stmt 1
 685              		.loc 1 48 19 is_stmt 0
 686 0380 83A7C43E 		lw	a5,1004(s1)
 687              		.loc 1 48 10
 688 0384 3387F400 		add	a4,s1,a5
 689 0388 03490700 		lbu	s2,0(a4)
 690              	.LVL67:
  49:src/consolebuffer.cpp ****     front = (front + 1) % capacity;
 691              		.loc 1 49 5 is_stmt 1
 692              		.loc 1 49 20 is_stmt 0
 693 038c 9B871700 		addiw	a5,a5,1
 694              		.loc 1 49 27
 695 0390 03A7843F 		lw	a4,1016(s1)
 696              		.loc 1 49 25
 697 0394 BBE7E702 		remw	a5,a5,a4
 698              		.loc 1 49 11
 699 0398 23A6F43E 		sw	a5,1004(s1)
  50:src/consolebuffer.cpp ****     size=size-1;
 700              		.loc 1 50 5 is_stmt 1
 701              		.loc 1 50 10 is_stmt 0
 702 039c 83A7443F 		lw	a5,1012(s1)
 703              		.loc 1 50 14
 704 03a0 9B87F7FF 		addiw	a5,a5,-1
 705              		.loc 1 50 9
 706 03a4 23AAF43E 		sw	a5,1012(s1)
  51:src/consolebuffer.cpp ****     sem_signal(mutexC);
 707              		.loc 1 51 5 is_stmt 1
 708              		.loc 1 51 15 is_stmt 0
 709 03a8 03B58440 		ld	a0,1032(s1)
 710 03ac 97000000 		call	_Z10sem_signalP4_sem@plt
 710      E7800000 
 711              	.LVL68:
  52:src/consolebuffer.cpp ****     sem_signal(full);
 712              		.loc 1 52 5 is_stmt 1
 713              		.loc 1 52 15 is_stmt 0
 714 03b4 03B58441 		ld	a0,1048(s1)
 715 03b8 97000000 		call	_Z10sem_signalP4_sem@plt
 715      E7800000 
 716              	.LVL69:
  53:src/consolebuffer.cpp ****     return c;
 717              		.loc 1 53 5 is_stmt 1
  54:src/consolebuffer.cpp **** }
 718              		.loc 1 54 1 is_stmt 0
 719 03c0 13050900 		mv	a0,s2
 720 03c4 83308101 		ld	ra,24(sp)
 721              		.cfi_restore 1
 722 03c8 03340101 		ld	s0,16(sp)
GAS LISTING /tmp/ccKB7W71.s 			page 17


 723              		.cfi_restore 8
 724              		.cfi_def_cfa 2, 32
 725 03cc 83348100 		ld	s1,8(sp)
 726              		.cfi_restore 9
 727              	.LVL70:
 728 03d0 03390100 		ld	s2,0(sp)
 729              		.cfi_restore 18
 730              	.LVL71:
 731 03d4 13010102 		addi	sp,sp,32
 732              		.cfi_def_cfa_offset 0
 733 03d8 67800000 		jr	ra
 734              		.cfi_endproc
 735              	.LFE53:
 737              		.align	2
 738              		.globl	_ZN13ConsoleBuffer10put_kernelEc
 740              	_ZN13ConsoleBuffer10put_kernelEc:
 741              	.LFB54:
  55:src/consolebuffer.cpp **** 
  56:src/consolebuffer.cpp **** void ConsoleBuffer::put_kernel(char new_char) {
 742              		.loc 1 56 47 is_stmt 1
 743              		.cfi_startproc
 744              	.LVL72:
 745 03dc 130101FE 		addi	sp,sp,-32
 746              		.cfi_def_cfa_offset 32
 747 03e0 233C1100 		sd	ra,24(sp)
 748 03e4 23388100 		sd	s0,16(sp)
 749 03e8 23349100 		sd	s1,8(sp)
 750 03ec 23302101 		sd	s2,0(sp)
 751              		.cfi_offset 1, -8
 752              		.cfi_offset 8, -16
 753              		.cfi_offset 9, -24
 754              		.cfi_offset 18, -32
 755 03f0 13040102 		addi	s0,sp,32
 756              		.cfi_def_cfa 8, 0
 757 03f4 93040500 		mv	s1,a0
 758 03f8 13890500 		mv	s2,a1
  57:src/consolebuffer.cpp ****     full->wait();
 759              		.loc 1 57 5
 760              		.loc 1 57 15 is_stmt 0
 761 03fc 03358541 		ld	a0,1048(a0)
 762              	.LVL73:
 763 0400 97000000 		call	_ZN4_sem4waitEv@plt
 763      E7800000 
 764              	.LVL74:
  58:src/consolebuffer.cpp ****     mutexP->wait();
 765              		.loc 1 58 5 is_stmt 1
 766              		.loc 1 58 17 is_stmt 0
 767 0408 03B50440 		ld	a0,1024(s1)
 768 040c 97000000 		call	_ZN4_sem4waitEv@plt
 768      E7800000 
 769              	.LVL75:
  59:src/consolebuffer.cpp ****     buffer[rear] = new_char;
 770              		.loc 1 59 5 is_stmt 1
 771              		.loc 1 59 12 is_stmt 0
 772 0414 83A7043F 		lw	a5,1008(s1)
 773              		.loc 1 59 18
 774 0418 3387F400 		add	a4,s1,a5
GAS LISTING /tmp/ccKB7W71.s 			page 18


 775 041c 23002701 		sb	s2,0(a4)
  60:src/consolebuffer.cpp ****     rear = (rear + 1) % capacity;
 776              		.loc 1 60 5 is_stmt 1
 777              		.loc 1 60 18 is_stmt 0
 778 0420 9B871700 		addiw	a5,a5,1
 779              		.loc 1 60 25
 780 0424 03A7843F 		lw	a4,1016(s1)
 781              		.loc 1 60 23
 782 0428 BBE7E702 		remw	a5,a5,a4
 783              		.loc 1 60 10
 784 042c 23A8F43E 		sw	a5,1008(s1)
  61:src/consolebuffer.cpp ****     size=size+1;
 785              		.loc 1 61 5 is_stmt 1
 786              		.loc 1 61 10 is_stmt 0
 787 0430 83A7443F 		lw	a5,1012(s1)
 788              		.loc 1 61 14
 789 0434 9B871700 		addiw	a5,a5,1
 790              		.loc 1 61 9
 791 0438 23AAF43E 		sw	a5,1012(s1)
  62:src/consolebuffer.cpp ****     mutexP->signal();
 792              		.loc 1 62 5 is_stmt 1
 793              		.loc 1 62 19 is_stmt 0
 794 043c 03B50440 		ld	a0,1024(s1)
 795 0440 97000000 		call	_ZN4_sem6signalEv@plt
 795      E7800000 
 796              	.LVL76:
  63:src/consolebuffer.cpp ****     empty->signal();
 797              		.loc 1 63 5 is_stmt 1
 798              		.loc 1 63 18 is_stmt 0
 799 0448 03B50441 		ld	a0,1040(s1)
 800 044c 97000000 		call	_ZN4_sem6signalEv@plt
 800      E7800000 
 801              	.LVL77:
  64:src/consolebuffer.cpp **** }
 802              		.loc 1 64 1
 803 0454 83308101 		ld	ra,24(sp)
 804              		.cfi_restore 1
 805 0458 03340101 		ld	s0,16(sp)
 806              		.cfi_restore 8
 807              		.cfi_def_cfa 2, 32
 808 045c 83348100 		ld	s1,8(sp)
 809              		.cfi_restore 9
 810              	.LVL78:
 811 0460 03390100 		ld	s2,0(sp)
 812              		.cfi_restore 18
 813 0464 13010102 		addi	sp,sp,32
 814              		.cfi_def_cfa_offset 0
 815 0468 67800000 		jr	ra
 816              		.cfi_endproc
 817              	.LFE54:
 819              		.align	2
 820              		.globl	_ZN13ConsoleBuffer11take_kernelEv
 822              	_ZN13ConsoleBuffer11take_kernelEv:
 823              	.LFB55:
  65:src/consolebuffer.cpp **** 
  66:src/consolebuffer.cpp **** char ConsoleBuffer::take_kernel() {
 824              		.loc 1 66 35 is_stmt 1
GAS LISTING /tmp/ccKB7W71.s 			page 19


 825              		.cfi_startproc
 826              	.LVL79:
 827 046c 130101FE 		addi	sp,sp,-32
 828              		.cfi_def_cfa_offset 32
 829 0470 233C1100 		sd	ra,24(sp)
 830 0474 23388100 		sd	s0,16(sp)
 831 0478 23349100 		sd	s1,8(sp)
 832 047c 23302101 		sd	s2,0(sp)
 833              		.cfi_offset 1, -8
 834              		.cfi_offset 8, -16
 835              		.cfi_offset 9, -24
 836              		.cfi_offset 18, -32
 837 0480 13040102 		addi	s0,sp,32
 838              		.cfi_def_cfa 8, 0
 839 0484 93040500 		mv	s1,a0
  67:src/consolebuffer.cpp ****     empty->wait();
 840              		.loc 1 67 5
 841              		.loc 1 67 16 is_stmt 0
 842 0488 03350541 		ld	a0,1040(a0)
 843              	.LVL80:
 844 048c 97000000 		call	_ZN4_sem4waitEv@plt
 844      E7800000 
 845              	.LVL81:
  68:src/consolebuffer.cpp ****     mutexC->wait();
 846              		.loc 1 68 5 is_stmt 1
 847              		.loc 1 68 17 is_stmt 0
 848 0494 03B58440 		ld	a0,1032(s1)
 849 0498 97000000 		call	_ZN4_sem4waitEv@plt
 849      E7800000 
 850              	.LVL82:
  69:src/consolebuffer.cpp ****     char c=buffer[front];
 851              		.loc 1 69 5 is_stmt 1
 852              		.loc 1 69 19 is_stmt 0
 853 04a0 83A7C43E 		lw	a5,1004(s1)
 854              		.loc 1 69 10
 855 04a4 3387F400 		add	a4,s1,a5
 856 04a8 03490700 		lbu	s2,0(a4)
 857              	.LVL83:
  70:src/consolebuffer.cpp ****     front = (front + 1) % capacity;
 858              		.loc 1 70 5 is_stmt 1
 859              		.loc 1 70 20 is_stmt 0
 860 04ac 9B871700 		addiw	a5,a5,1
 861              		.loc 1 70 27
 862 04b0 03A7843F 		lw	a4,1016(s1)
 863              		.loc 1 70 25
 864 04b4 BBE7E702 		remw	a5,a5,a4
 865              		.loc 1 70 11
 866 04b8 23A6F43E 		sw	a5,1004(s1)
  71:src/consolebuffer.cpp ****     size=size-1;
 867              		.loc 1 71 5 is_stmt 1
 868              		.loc 1 71 10 is_stmt 0
 869 04bc 83A7443F 		lw	a5,1012(s1)
 870              		.loc 1 71 14
 871 04c0 9B87F7FF 		addiw	a5,a5,-1
 872              		.loc 1 71 9
 873 04c4 23AAF43E 		sw	a5,1012(s1)
  72:src/consolebuffer.cpp ****     mutexC->signal();
GAS LISTING /tmp/ccKB7W71.s 			page 20


 874              		.loc 1 72 5 is_stmt 1
 875              		.loc 1 72 19 is_stmt 0
 876 04c8 03B58440 		ld	a0,1032(s1)
 877 04cc 97000000 		call	_ZN4_sem6signalEv@plt
 877      E7800000 
 878              	.LVL84:
  73:src/consolebuffer.cpp ****     full->signal();
 879              		.loc 1 73 5 is_stmt 1
 880              		.loc 1 73 17 is_stmt 0
 881 04d4 03B58441 		ld	a0,1048(s1)
 882 04d8 97000000 		call	_ZN4_sem6signalEv@plt
 882      E7800000 
 883              	.LVL85:
  74:src/consolebuffer.cpp ****     return c;
 884              		.loc 1 74 5 is_stmt 1
  75:src/consolebuffer.cpp **** }
 885              		.loc 1 75 1 is_stmt 0
 886 04e0 13050900 		mv	a0,s2
 887 04e4 83308101 		ld	ra,24(sp)
 888              		.cfi_restore 1
 889 04e8 03340101 		ld	s0,16(sp)
 890              		.cfi_restore 8
 891              		.cfi_def_cfa 2, 32
 892 04ec 83348100 		ld	s1,8(sp)
 893              		.cfi_restore 9
 894              	.LVL86:
 895 04f0 03390100 		ld	s2,0(sp)
 896              		.cfi_restore 18
 897              	.LVL87:
 898 04f4 13010102 		addi	sp,sp,32
 899              		.cfi_def_cfa_offset 0
 900 04f8 67800000 		jr	ra
 901              		.cfi_endproc
 902              	.LFE55:
 904              		.align	2
 905              		.globl	_ZNK13ConsoleBuffer7getSizeEv
 907              	_ZNK13ConsoleBuffer7getSizeEv:
 908              	.LFB56:
  76:src/consolebuffer.cpp **** 
  77:src/consolebuffer.cpp **** int ConsoleBuffer::getSize() const {
 909              		.loc 1 77 36 is_stmt 1
 910              		.cfi_startproc
 911              	.LVL88:
 912 04fc 130101FF 		addi	sp,sp,-16
 913              		.cfi_def_cfa_offset 16
 914 0500 23348100 		sd	s0,8(sp)
 915              		.cfi_offset 8, -8
 916 0504 13040101 		addi	s0,sp,16
 917              		.cfi_def_cfa 8, 0
  78:src/consolebuffer.cpp ****     return size;
 918              		.loc 1 78 5
  79:src/consolebuffer.cpp **** }
 919              		.loc 1 79 1 is_stmt 0
 920 0508 0325453F 		lw	a0,1012(a0)
 921              	.LVL89:
 922 050c 03348100 		ld	s0,8(sp)
 923              		.cfi_restore 8
GAS LISTING /tmp/ccKB7W71.s 			page 21


 924              		.cfi_def_cfa 2, 16
 925 0510 13010101 		addi	sp,sp,16
 926              		.cfi_def_cfa_offset 0
 927 0514 67800000 		jr	ra
 928              		.cfi_endproc
 929              	.LFE56:
 931              	.Letext0:
 932              		.file 4 "src/../h/../lib/hw.h"
 933              		.file 5 "src/../h/../h/tcb.hpp"
 934              		.file 6 "src/../h/syscall_c.h"
 935              		.file 7 "src/../h/consolebuffer.hpp"
 936              		.file 8 "src/../h/../h/../lib/mem.h"
 5447              		.align	3
 5450              	DW.ref.__gxx_personality_v0:
 5451 0000 00000000 		.dword	__gxx_personality_v0
 5451      00000000 
 5452              		.ident	"GCC: (Ubuntu 9.4.0-1ubuntu1~20.04) 9.4.0"
 5453              		.section	.note.GNU-stack,"",@progbits
GAS LISTING /tmp/ccKB7W71.s 			page 22

