GAS LISTING /tmp/cco3fpj3.s 			page 1


   1              		.file	"memory_override.cpp"
   2              		.option pic
   3              		.option norelax
   4              		.text
   5              	.Ltext0:
   6              		.align	2
   7              		.globl	__mem_alloc
   9              	__mem_alloc:
  10              	.LFB0:
  11              		.file 1 "src/memory_override.cpp"
   1:src/memory_override.cpp **** //
   2:src/memory_override.cpp **** // Created by DjordjeS on 8.8.2022.
   3:src/memory_override.cpp **** //
   4:src/memory_override.cpp **** #include "../lib/mem.h"
   5:src/memory_override.cpp **** #include "../h/MemoryAllocator.hpp"
   6:src/memory_override.cpp **** 
   7:src/memory_override.cpp **** void* __mem_alloc(size_t size){
  12              		.loc 1 7 31
  13              		.cfi_startproc
  14              	.LVL0:
  15 0000 130101FF 		addi	sp,sp,-16
  16              		.cfi_def_cfa_offset 16
  17 0004 23341100 		sd	ra,8(sp)
  18 0008 23308100 		sd	s0,0(sp)
  19              		.cfi_offset 1, -8
  20              		.cfi_offset 8, -16
  21 000c 13040101 		addi	s0,sp,16
  22              		.cfi_def_cfa 8, 0
   8:src/memory_override.cpp ****     return MemoryAllocator::allocate(size);
  23              		.loc 1 8 5
  24              		.loc 1 8 37 is_stmt 0
  25 0010 97000000 		call	_ZN15MemoryAllocator8allocateEm@plt
  25      E7800000 
  26              	.LVL1:
   9:src/memory_override.cpp **** }
  27              		.loc 1 9 1
  28 0018 83308100 		ld	ra,8(sp)
  29              		.cfi_restore 1
  30 001c 03340100 		ld	s0,0(sp)
  31              		.cfi_restore 8
  32              		.cfi_def_cfa 2, 16
  33 0020 13010101 		addi	sp,sp,16
  34              		.cfi_def_cfa_offset 0
  35 0024 67800000 		jr	ra
  36              		.cfi_endproc
  37              	.LFE0:
  39              		.align	2
  40              		.globl	__mem_free
  42              	__mem_free:
  43              	.LFB1:
  10:src/memory_override.cpp **** 
  11:src/memory_override.cpp **** int __mem_free(void *ptr){
  44              		.loc 1 11 26 is_stmt 1
  45              		.cfi_startproc
  46              	.LVL2:
  47 0028 130101FF 		addi	sp,sp,-16
  48              		.cfi_def_cfa_offset 16
GAS LISTING /tmp/cco3fpj3.s 			page 2


  49 002c 23341100 		sd	ra,8(sp)
  50 0030 23308100 		sd	s0,0(sp)
  51              		.cfi_offset 1, -8
  52              		.cfi_offset 8, -16
  53 0034 13040101 		addi	s0,sp,16
  54              		.cfi_def_cfa 8, 0
  12:src/memory_override.cpp ****     return MemoryAllocator::free_memory(ptr);
  55              		.loc 1 12 5
  56              		.loc 1 12 40 is_stmt 0
  57 0038 97000000 		call	_ZN15MemoryAllocator11free_memoryEPv@plt
  57      E7800000 
  58              	.LVL3:
  13:src/memory_override.cpp **** }
  59              		.loc 1 13 1
  60 0040 83308100 		ld	ra,8(sp)
  61              		.cfi_restore 1
  62 0044 03340100 		ld	s0,0(sp)
  63              		.cfi_restore 8
  64              		.cfi_def_cfa 2, 16
  65 0048 13010101 		addi	sp,sp,16
  66              		.cfi_def_cfa_offset 0
  67 004c 67800000 		jr	ra
  68              		.cfi_endproc
  69              	.LFE1:
  71              	.Letext0:
  72              		.file 2 "src/../lib/hw.h"
  73              		.file 3 "src/../h/MemoryAllocator.hpp"
GAS LISTING /tmp/cco3fpj3.s 			page 3

