GAS LISTING /tmp/ccdOlijK.s 			page 1


   1              		.file	"MemoryAllocator.cpp"
   2              		.option pic
   3              		.option norelax
   4              		.text
   5              	.Ltext0:
   6              		.align	2
   7              		.globl	_ZN15MemoryAllocator10initMemoryEv
   9              	_ZN15MemoryAllocator10initMemoryEv:
  10              	.LFB0:
  11              		.file 1 "src/MemoryAllocator.cpp"
   1:src/MemoryAllocator.cpp **** //
   2:src/MemoryAllocator.cpp **** // Created by DjordjeS on 6.8.2022.
   3:src/MemoryAllocator.cpp **** //
   4:src/MemoryAllocator.cpp **** #include "../h/MemoryAllocator.hpp"
   5:src/MemoryAllocator.cpp **** 
   6:src/MemoryAllocator.cpp **** MemFragment* MemoryAllocator::free_mem_head = nullptr;
   7:src/MemoryAllocator.cpp **** 
   8:src/MemoryAllocator.cpp **** MemFragment* MemoryAllocator::allocated_head = nullptr;
   9:src/MemoryAllocator.cpp **** 
  10:src/MemoryAllocator.cpp **** void MemoryAllocator::initMemory(){
  12              		.loc 1 10 35
  13              		.cfi_startproc
  14 0000 130101FF 		addi	sp,sp,-16
  15              		.cfi_def_cfa_offset 16
  16 0004 23348100 		sd	s0,8(sp)
  17              		.cfi_offset 8, -8
  18 0008 13040101 		addi	s0,sp,16
  19              		.cfi_def_cfa 8, 0
  11:src/MemoryAllocator.cpp ****     free_mem_head = (MemFragment*)HEAP_START_ADDR;
  20              		.loc 1 11 5
  21              		.loc 1 11 19 is_stmt 0
  22 000c 97060000 		la	a3,HEAP_START_ADDR
  22      83B60600 
  23 0014 03B70600 		ld	a4,0(a3)
  24 0018 97070000 		lla	a5,.LANCHOR0
  24      93870700 
  25 0020 23B0E700 		sd	a4,0(a5)
  12:src/MemoryAllocator.cpp **** 
  13:src/MemoryAllocator.cpp ****     free_mem_head->next = nullptr;
  26              		.loc 1 13 5 is_stmt 1
  27              		.loc 1 13 25 is_stmt 0
  28 0024 23300700 		sd	zero,0(a4)
  14:src/MemoryAllocator.cpp ****     free_mem_head->prev = nullptr;
  29              		.loc 1 14 5 is_stmt 1
  30              		.loc 1 14 20 is_stmt 0
  31 0028 03B70700 		ld	a4,0(a5)
  32              		.loc 1 14 25
  33 002c 23340700 		sd	zero,8(a4)
  15:src/MemoryAllocator.cpp ****     free_mem_head->free = true;
  34              		.loc 1 15 5 is_stmt 1
  35              		.loc 1 15 25 is_stmt 0
  36 0030 93071000 		li	a5,1
  37 0034 230CF700 		sb	a5,24(a4)
  16:src/MemoryAllocator.cpp ****     free_mem_head->size = (size_t)( (char*)HEAP_END_ADDR - sizeof(size_t) - (char*)HEAP_START_ADDR 
  38              		.loc 1 16 5 is_stmt 1
  39              		.loc 1 16 37 is_stmt 0
  40 0038 97070000 		la	a5,HEAP_END_ADDR
GAS LISTING /tmp/ccdOlijK.s 			page 2


  40      83B70700 
  41 0040 83B70700 		ld	a5,0(a5)
  42              		.loc 1 16 58
  43 0044 938787FF 		addi	a5,a5,-8
  44              		.loc 1 16 77
  45 0048 83B60600 		ld	a3,0(a3)
  46              		.loc 1 16 75
  47 004c B387D740 		sub	a5,a5,a3
  48              		.loc 1 16 100
  49 0050 938707FC 		addi	a5,a5,-64
  50              		.loc 1 16 25
  51 0054 2338F700 		sd	a5,16(a4)
  17:src/MemoryAllocator.cpp **** }
  52              		.loc 1 17 1
  53 0058 03348100 		ld	s0,8(sp)
  54              		.cfi_restore 8
  55              		.cfi_def_cfa 2, 16
  56 005c 13010101 		addi	sp,sp,16
  57              		.cfi_def_cfa_offset 0
  58 0060 67800000 		jr	ra
  59              		.cfi_endproc
  60              	.LFE0:
  62              		.align	2
  63              		.globl	_ZN15MemoryAllocator9add_to_flEP11MemFragment
  65              	_ZN15MemoryAllocator9add_to_flEP11MemFragment:
  66              	.LFB3:
  18:src/MemoryAllocator.cpp **** 
  19:src/MemoryAllocator.cpp **** void* MemoryAllocator::allocate(size_t size){
  20:src/MemoryAllocator.cpp ****     if(size<=0) return nullptr;
  21:src/MemoryAllocator.cpp **** 
  22:src/MemoryAllocator.cpp ****     size_t my_size=size/MEM_BLOCK_SIZE;
  23:src/MemoryAllocator.cpp ****     if(size % MEM_BLOCK_SIZE > 0){
  24:src/MemoryAllocator.cpp ****         my_size++;
  25:src/MemoryAllocator.cpp ****     }
  26:src/MemoryAllocator.cpp ****     my_size = my_size * MEM_BLOCK_SIZE;
  27:src/MemoryAllocator.cpp **** 
  28:src/MemoryAllocator.cpp ****     MemFragment* tren = free_mem_head;
  29:src/MemoryAllocator.cpp **** 
  30:src/MemoryAllocator.cpp ****     while(tren!=nullptr){
  31:src/MemoryAllocator.cpp ****         if(tren->size == my_size){
  32:src/MemoryAllocator.cpp ****             discard_from_fl(tren);
  33:src/MemoryAllocator.cpp ****             add_to_al(tren);
  34:src/MemoryAllocator.cpp ****             return (void*)( (char*)tren + MEM_BLOCK_SIZE);
  35:src/MemoryAllocator.cpp ****         }
  36:src/MemoryAllocator.cpp ****         else if(tren->size > my_size){
  37:src/MemoryAllocator.cpp ****             discard_from_fl(tren);
  38:src/MemoryAllocator.cpp **** 
  39:src/MemoryAllocator.cpp ****             MemFragment* new_free_frag=(MemFragment*)( (char*)tren + MEM_BLOCK_SIZE + my_size);
  40:src/MemoryAllocator.cpp ****             new_free_frag->size=(tren->size - MEM_BLOCK_SIZE - my_size);
  41:src/MemoryAllocator.cpp ****             new_free_frag->next= nullptr;
  42:src/MemoryAllocator.cpp ****             new_free_frag->prev= nullptr;
  43:src/MemoryAllocator.cpp ****             add_to_fl(new_free_frag);
  44:src/MemoryAllocator.cpp **** 
  45:src/MemoryAllocator.cpp ****             tren->size=my_size;
  46:src/MemoryAllocator.cpp ****             add_to_al(tren);
  47:src/MemoryAllocator.cpp ****             return (void*)((char*)tren + MEM_BLOCK_SIZE);
  48:src/MemoryAllocator.cpp ****         }
GAS LISTING /tmp/ccdOlijK.s 			page 3


  49:src/MemoryAllocator.cpp **** 
  50:src/MemoryAllocator.cpp ****         tren=tren->next;
  51:src/MemoryAllocator.cpp ****     }
  52:src/MemoryAllocator.cpp **** 
  53:src/MemoryAllocator.cpp ****     return nullptr;
  54:src/MemoryAllocator.cpp **** }
  55:src/MemoryAllocator.cpp **** 
  56:src/MemoryAllocator.cpp **** int MemoryAllocator::free_memory(void* ptr) {
  57:src/MemoryAllocator.cpp ****     if(ptr==nullptr) return -2;
  58:src/MemoryAllocator.cpp **** 
  59:src/MemoryAllocator.cpp ****     MemFragment* fragment=(MemFragment*)( (char*)(ptr) - MEM_BLOCK_SIZE);
  60:src/MemoryAllocator.cpp ****     if(!fragment->free){
  61:src/MemoryAllocator.cpp ****         discard_from_al(fragment);
  62:src/MemoryAllocator.cpp ****         add_to_fl(fragment);
  63:src/MemoryAllocator.cpp ****         return 0;
  64:src/MemoryAllocator.cpp ****     }
  65:src/MemoryAllocator.cpp ****     return -4;
  66:src/MemoryAllocator.cpp **** }
  67:src/MemoryAllocator.cpp **** 
  68:src/MemoryAllocator.cpp **** void MemoryAllocator::add_to_fl(MemFragment* fragment) {
  67              		.loc 1 68 56 is_stmt 1
  68              		.cfi_startproc
  69              	.LVL0:
  70 0064 130101FF 		addi	sp,sp,-16
  71              		.cfi_def_cfa_offset 16
  72 0068 23348100 		sd	s0,8(sp)
  73              		.cfi_offset 8, -8
  74 006c 13040101 		addi	s0,sp,16
  75              		.cfi_def_cfa 8, 0
  69:src/MemoryAllocator.cpp ****     if(fragment==nullptr) return;
  76              		.loc 1 69 5
  77 0070 630E050E 		beqz	a0,.L3
  70:src/MemoryAllocator.cpp **** 
  71:src/MemoryAllocator.cpp ****     fragment->free=true;
  78              		.loc 1 71 5
  79              		.loc 1 71 19 is_stmt 0
  80 0074 93071000 		li	a5,1
  81 0078 230CF500 		sb	a5,24(a0)
  72:src/MemoryAllocator.cpp **** 
  73:src/MemoryAllocator.cpp ****     if(free_mem_head==nullptr){
  82              		.loc 1 73 5 is_stmt 1
  83              		.loc 1 73 21 is_stmt 0
  84 007c 17070000 		ld	a4,.LANCHOR0
  84      03370700 
  85              		.loc 1 73 5
  86 0084 63000702 		beqz	a4,.L15
  74:src/MemoryAllocator.cpp ****         free_mem_head=fragment;
  75:src/MemoryAllocator.cpp ****         return;
  76:src/MemoryAllocator.cpp ****     }
  77:src/MemoryAllocator.cpp **** 
  78:src/MemoryAllocator.cpp ****     //fragment postaje nova glava
  79:src/MemoryAllocator.cpp ****     if(fragment < free_mem_head){
  87              		.loc 1 79 5 is_stmt 1
  88              	.LBB2:
  89 0088 6364E502 		bgtu	a4,a0,.L16
  90              	.LBE2:
  80:src/MemoryAllocator.cpp ****         fragment->next = free_mem_head;
GAS LISTING /tmp/ccdOlijK.s 			page 4


  81:src/MemoryAllocator.cpp ****         fragment->prev = nullptr;
  82:src/MemoryAllocator.cpp ****         free_mem_head->prev = fragment;
  83:src/MemoryAllocator.cpp ****         free_mem_head = fragment;
  84:src/MemoryAllocator.cpp **** 
  85:src/MemoryAllocator.cpp ****         MemFragment* tren = free_mem_head->next;
  86:src/MemoryAllocator.cpp ****         //potencijalno spajanje sa sledecim (koji je pre ovoga bio glava)
  87:src/MemoryAllocator.cpp ****         if( ( (char*)free_mem_head + free_mem_head->size + MEM_BLOCK_SIZE) >= ((char*)tren) ){
  88:src/MemoryAllocator.cpp ****             free_mem_head->size = free_mem_head->size + tren->size + MEM_BLOCK_SIZE;
  89:src/MemoryAllocator.cpp ****             free_mem_head->next=tren->next;
  90:src/MemoryAllocator.cpp ****             if(tren->next!=nullptr) tren->next->prev=free_mem_head;
  91:src/MemoryAllocator.cpp ****             tren->next=nullptr;
  92:src/MemoryAllocator.cpp ****             tren->prev=nullptr;
  93:src/MemoryAllocator.cpp ****         }
  94:src/MemoryAllocator.cpp ****         return;
  95:src/MemoryAllocator.cpp ****     }
  96:src/MemoryAllocator.cpp **** 
  97:src/MemoryAllocator.cpp ****     MemFragment* tren = free_mem_head->next;
  91              		.loc 1 97 5
  92              		.loc 1 97 18 is_stmt 0
  93 008c 83370700 		ld	a5,0(a4)
  94              	.LVL1:
  98:src/MemoryAllocator.cpp ****     MemFragment* prev = free_mem_head;
  95              		.loc 1 98 5 is_stmt 1
  96              	.L13:
  99:src/MemoryAllocator.cpp ****     while(tren!=nullptr){
  97              		.loc 1 99 5
  98              		.loc 1 99 15
  99 0090 6388070C 		beqz	a5,.L9
 100:src/MemoryAllocator.cpp ****         //stavljamo u sred liste
 101:src/MemoryAllocator.cpp ****         if(fragment<tren){
 100              		.loc 1 101 9
 101 0094 6360F508 		bgtu	a5,a0,.L17
 102:src/MemoryAllocator.cpp ****             prev->next=fragment;
 103:src/MemoryAllocator.cpp ****             tren->prev=fragment;
 104:src/MemoryAllocator.cpp ****             fragment->prev=prev;
 105:src/MemoryAllocator.cpp ****             fragment->next=tren;
 106:src/MemoryAllocator.cpp **** 
 107:src/MemoryAllocator.cpp ****             //potencijalno spajanje sa sledecim
 108:src/MemoryAllocator.cpp ****             if( ( (char*)fragment + fragment->size + MEM_BLOCK_SIZE) >= ((char*)tren) ){
 109:src/MemoryAllocator.cpp ****                 fragment->size = fragment->size + tren->size + MEM_BLOCK_SIZE;
 110:src/MemoryAllocator.cpp ****                 fragment->next=tren->next;
 111:src/MemoryAllocator.cpp ****                 if(tren->next!=nullptr) tren->next->prev=fragment;
 112:src/MemoryAllocator.cpp ****                 tren->next=nullptr;
 113:src/MemoryAllocator.cpp ****                 tren->prev=nullptr;
 114:src/MemoryAllocator.cpp ****             }
 115:src/MemoryAllocator.cpp ****             return;
 116:src/MemoryAllocator.cpp ****         }
 117:src/MemoryAllocator.cpp **** 
 118:src/MemoryAllocator.cpp ****         prev=tren;
 102              		.loc 1 118 9
 103              	.LVL2:
 119:src/MemoryAllocator.cpp ****         tren=tren->next;
 104              		.loc 1 119 9
 118:src/MemoryAllocator.cpp ****         tren=tren->next;
 105              		.loc 1 118 13 is_stmt 0
 106 0098 13870700 		mv	a4,a5
 107              		.loc 1 119 13
GAS LISTING /tmp/ccdOlijK.s 			page 5


 108 009c 83B70700 		ld	a5,0(a5)
 109              	.LVL3:
  99:src/MemoryAllocator.cpp ****         //stavljamo u sred liste
 110              		.loc 1 99 5
 111 00a0 6FF01FFF 		j	.L13
 112              	.LVL4:
 113              	.L15:
  74:src/MemoryAllocator.cpp ****         return;
 114              		.loc 1 74 9 is_stmt 1
  74:src/MemoryAllocator.cpp ****         return;
 115              		.loc 1 74 22 is_stmt 0
 116 00a4 97070000 		sd	a0,.LANCHOR0,a5
 116      23B0A700 
  75:src/MemoryAllocator.cpp ****     }
 117              		.loc 1 75 9 is_stmt 1
 118 00ac 6F00000C 		j	.L3
 119              	.L16:
 120              	.LBB4:
 121              	.LBB3:
  80:src/MemoryAllocator.cpp ****         fragment->prev = nullptr;
 122              		.loc 1 80 9
  80:src/MemoryAllocator.cpp ****         fragment->prev = nullptr;
 123              		.loc 1 80 24 is_stmt 0
 124 00b0 2330E500 		sd	a4,0(a0)
  81:src/MemoryAllocator.cpp ****         free_mem_head->prev = fragment;
 125              		.loc 1 81 9 is_stmt 1
  81:src/MemoryAllocator.cpp ****         free_mem_head->prev = fragment;
 126              		.loc 1 81 24 is_stmt 0
 127 00b4 23340500 		sd	zero,8(a0)
  82:src/MemoryAllocator.cpp ****         free_mem_head = fragment;
 128              		.loc 1 82 9 is_stmt 1
  82:src/MemoryAllocator.cpp ****         free_mem_head = fragment;
 129              		.loc 1 82 24 is_stmt 0
 130 00b8 97070000 		lla	a5,.LANCHOR0
 130      93870700 
 131 00c0 03B70700 		ld	a4,0(a5)
  82:src/MemoryAllocator.cpp ****         free_mem_head = fragment;
 132              		.loc 1 82 29
 133 00c4 2334A700 		sd	a0,8(a4)
  83:src/MemoryAllocator.cpp **** 
 134              		.loc 1 83 9 is_stmt 1
  83:src/MemoryAllocator.cpp **** 
 135              		.loc 1 83 23 is_stmt 0
 136 00c8 23B0A700 		sd	a0,0(a5)
  85:src/MemoryAllocator.cpp ****         //potencijalno spajanje sa sledecim (koji je pre ovoga bio glava)
 137              		.loc 1 85 9 is_stmt 1
  85:src/MemoryAllocator.cpp ****         //potencijalno spajanje sa sledecim (koji je pre ovoga bio glava)
 138              		.loc 1 85 22 is_stmt 0
 139 00cc 83360500 		ld	a3,0(a0)
 140              	.LVL5:
  87:src/MemoryAllocator.cpp ****             free_mem_head->size = free_mem_head->size + tren->size + MEM_BLOCK_SIZE;
 141              		.loc 1 87 9 is_stmt 1
  87:src/MemoryAllocator.cpp ****             free_mem_head->size = free_mem_head->size + tren->size + MEM_BLOCK_SIZE;
 142              		.loc 1 87 53 is_stmt 0
 143 00d0 83370501 		ld	a5,16(a0)
  87:src/MemoryAllocator.cpp ****             free_mem_head->size = free_mem_head->size + tren->size + MEM_BLOCK_SIZE;
 144              		.loc 1 87 58
GAS LISTING /tmp/ccdOlijK.s 			page 6


 145 00d4 13870704 		addi	a4,a5,64
 146 00d8 3307E500 		add	a4,a0,a4
  87:src/MemoryAllocator.cpp ****             free_mem_head->size = free_mem_head->size + tren->size + MEM_BLOCK_SIZE;
 147              		.loc 1 87 9
 148 00dc 6368D708 		bltu	a4,a3,.L3
  88:src/MemoryAllocator.cpp ****             free_mem_head->next=tren->next;
 149              		.loc 1 88 13 is_stmt 1
  88:src/MemoryAllocator.cpp ****             free_mem_head->next=tren->next;
 150              		.loc 1 88 63 is_stmt 0
 151 00e0 03B70601 		ld	a4,16(a3)
  88:src/MemoryAllocator.cpp ****             free_mem_head->next=tren->next;
 152              		.loc 1 88 55
 153 00e4 B387E700 		add	a5,a5,a4
  88:src/MemoryAllocator.cpp ****             free_mem_head->next=tren->next;
 154              		.loc 1 88 68
 155 00e8 93870704 		addi	a5,a5,64
  88:src/MemoryAllocator.cpp ****             free_mem_head->next=tren->next;
 156              		.loc 1 88 33
 157 00ec 2338F500 		sd	a5,16(a0)
  89:src/MemoryAllocator.cpp ****             if(tren->next!=nullptr) tren->next->prev=free_mem_head;
 158              		.loc 1 89 13 is_stmt 1
  89:src/MemoryAllocator.cpp ****             if(tren->next!=nullptr) tren->next->prev=free_mem_head;
 159              		.loc 1 89 39 is_stmt 0
 160 00f0 83B70600 		ld	a5,0(a3)
  89:src/MemoryAllocator.cpp ****             if(tren->next!=nullptr) tren->next->prev=free_mem_head;
 161              		.loc 1 89 32
 162 00f4 2330F500 		sd	a5,0(a0)
  90:src/MemoryAllocator.cpp ****             tren->next=nullptr;
 163              		.loc 1 90 13 is_stmt 1
 164 00f8 63880700 		beqz	a5,.L8
  90:src/MemoryAllocator.cpp ****             tren->next=nullptr;
 165              		.loc 1 90 37 discriminator 1
  90:src/MemoryAllocator.cpp ****             tren->next=nullptr;
 166              		.loc 1 90 53 is_stmt 0 discriminator 1
 167 00fc 17070000 		ld	a4,.LANCHOR0
 167      03370700 
 168 0104 23B4E700 		sd	a4,8(a5)
 169              	.L8:
  91:src/MemoryAllocator.cpp ****             tren->prev=nullptr;
 170              		.loc 1 91 13 is_stmt 1
  91:src/MemoryAllocator.cpp ****             tren->prev=nullptr;
 171              		.loc 1 91 23 is_stmt 0
 172 0108 23B00600 		sd	zero,0(a3)
  92:src/MemoryAllocator.cpp ****         }
 173              		.loc 1 92 13 is_stmt 1
  92:src/MemoryAllocator.cpp ****         }
 174              		.loc 1 92 23 is_stmt 0
 175 010c 23B40600 		sd	zero,8(a3)
  94:src/MemoryAllocator.cpp ****     }
 176              		.loc 1 94 9 is_stmt 1
 177 0110 6F00C005 		j	.L3
 178              	.LVL6:
 179              	.L17:
 180              	.LBE3:
 181              	.LBE4:
 102:src/MemoryAllocator.cpp ****             tren->prev=fragment;
 182              		.loc 1 102 13
GAS LISTING /tmp/ccdOlijK.s 			page 7


 102:src/MemoryAllocator.cpp ****             tren->prev=fragment;
 183              		.loc 1 102 23 is_stmt 0
 184 0114 2330A700 		sd	a0,0(a4)
 103:src/MemoryAllocator.cpp ****             fragment->prev=prev;
 185              		.loc 1 103 13 is_stmt 1
 103:src/MemoryAllocator.cpp ****             fragment->prev=prev;
 186              		.loc 1 103 23 is_stmt 0
 187 0118 23B4A700 		sd	a0,8(a5)
 104:src/MemoryAllocator.cpp ****             fragment->next=tren;
 188              		.loc 1 104 13 is_stmt 1
 104:src/MemoryAllocator.cpp ****             fragment->next=tren;
 189              		.loc 1 104 27 is_stmt 0
 190 011c 2334E500 		sd	a4,8(a0)
 105:src/MemoryAllocator.cpp **** 
 191              		.loc 1 105 13 is_stmt 1
 105:src/MemoryAllocator.cpp **** 
 192              		.loc 1 105 27 is_stmt 0
 193 0120 2330F500 		sd	a5,0(a0)
 108:src/MemoryAllocator.cpp ****                 fragment->size = fragment->size + tren->size + MEM_BLOCK_SIZE;
 194              		.loc 1 108 13 is_stmt 1
 108:src/MemoryAllocator.cpp ****                 fragment->size = fragment->size + tren->size + MEM_BLOCK_SIZE;
 195              		.loc 1 108 47 is_stmt 0
 196 0124 03370501 		ld	a4,16(a0)
 197              	.LVL7:
 108:src/MemoryAllocator.cpp ****                 fragment->size = fragment->size + tren->size + MEM_BLOCK_SIZE;
 198              		.loc 1 108 52
 199 0128 93060704 		addi	a3,a4,64
 200 012c B306D500 		add	a3,a0,a3
 108:src/MemoryAllocator.cpp ****                 fragment->size = fragment->size + tren->size + MEM_BLOCK_SIZE;
 201              		.loc 1 108 13
 202 0130 63EEF602 		bltu	a3,a5,.L3
 109:src/MemoryAllocator.cpp ****                 fragment->next=tren->next;
 203              		.loc 1 109 17 is_stmt 1
 109:src/MemoryAllocator.cpp ****                 fragment->next=tren->next;
 204              		.loc 1 109 57 is_stmt 0
 205 0134 83B60701 		ld	a3,16(a5)
 109:src/MemoryAllocator.cpp ****                 fragment->next=tren->next;
 206              		.loc 1 109 49
 207 0138 3307D700 		add	a4,a4,a3
 109:src/MemoryAllocator.cpp ****                 fragment->next=tren->next;
 208              		.loc 1 109 62
 209 013c 13070704 		addi	a4,a4,64
 109:src/MemoryAllocator.cpp ****                 fragment->next=tren->next;
 210              		.loc 1 109 32
 211 0140 2338E500 		sd	a4,16(a0)
 110:src/MemoryAllocator.cpp ****                 if(tren->next!=nullptr) tren->next->prev=fragment;
 212              		.loc 1 110 17 is_stmt 1
 110:src/MemoryAllocator.cpp ****                 if(tren->next!=nullptr) tren->next->prev=fragment;
 213              		.loc 1 110 38 is_stmt 0
 214 0144 03B70700 		ld	a4,0(a5)
 110:src/MemoryAllocator.cpp ****                 if(tren->next!=nullptr) tren->next->prev=fragment;
 215              		.loc 1 110 31
 216 0148 2330E500 		sd	a4,0(a0)
 111:src/MemoryAllocator.cpp ****                 tren->next=nullptr;
 217              		.loc 1 111 17 is_stmt 1
 218 014c 63040700 		beqz	a4,.L12
 111:src/MemoryAllocator.cpp ****                 tren->next=nullptr;
GAS LISTING /tmp/ccdOlijK.s 			page 8


 219              		.loc 1 111 41 discriminator 1
 111:src/MemoryAllocator.cpp ****                 tren->next=nullptr;
 220              		.loc 1 111 57 is_stmt 0 discriminator 1
 221 0150 2334A700 		sd	a0,8(a4)
 222              	.LVL8:
 223              	.L12:
 112:src/MemoryAllocator.cpp ****                 tren->prev=nullptr;
 224              		.loc 1 112 17 is_stmt 1
 112:src/MemoryAllocator.cpp ****                 tren->prev=nullptr;
 225              		.loc 1 112 27 is_stmt 0
 226 0154 23B00700 		sd	zero,0(a5)
 113:src/MemoryAllocator.cpp ****             }
 227              		.loc 1 113 17 is_stmt 1
 113:src/MemoryAllocator.cpp ****             }
 228              		.loc 1 113 27 is_stmt 0
 229 0158 23B40700 		sd	zero,8(a5)
 115:src/MemoryAllocator.cpp ****         }
 230              		.loc 1 115 13 is_stmt 1
 231 015c 6F000001 		j	.L3
 232              	.LVL9:
 233              	.L9:
 120:src/MemoryAllocator.cpp ****     }
 121:src/MemoryAllocator.cpp ****     //na kraju liste stavljamo fragment
 122:src/MemoryAllocator.cpp ****     prev->next=fragment;
 234              		.loc 1 122 5
 235              		.loc 1 122 15 is_stmt 0
 236 0160 2330A700 		sd	a0,0(a4)
 123:src/MemoryAllocator.cpp ****     fragment->prev=prev;
 237              		.loc 1 123 5 is_stmt 1
 238              		.loc 1 123 19 is_stmt 0
 239 0164 2334E500 		sd	a4,8(a0)
 124:src/MemoryAllocator.cpp ****     fragment->next=nullptr;
 240              		.loc 1 124 5 is_stmt 1
 241              		.loc 1 124 19 is_stmt 0
 242 0168 23300500 		sd	zero,0(a0)
 125:src/MemoryAllocator.cpp ****     return;
 243              		.loc 1 125 5 is_stmt 1
 244              	.LVL10:
 245              	.L3:
 126:src/MemoryAllocator.cpp **** }
 246              		.loc 1 126 1 is_stmt 0
 247 016c 03348100 		ld	s0,8(sp)
 248              		.cfi_restore 8
 249              		.cfi_def_cfa 2, 16
 250 0170 13010101 		addi	sp,sp,16
 251              		.cfi_def_cfa_offset 0
 252 0174 67800000 		jr	ra
 253              		.cfi_endproc
 254              	.LFE3:
 256              		.align	2
 257              		.globl	_ZN15MemoryAllocator15discard_from_flEP11MemFragment
 259              	_ZN15MemoryAllocator15discard_from_flEP11MemFragment:
 260              	.LFB4:
 127:src/MemoryAllocator.cpp **** 
 128:src/MemoryAllocator.cpp **** void MemoryAllocator::discard_from_fl(MemFragment* fragment) {
 261              		.loc 1 128 62 is_stmt 1
 262              		.cfi_startproc
GAS LISTING /tmp/ccdOlijK.s 			page 9


 263              	.LVL11:
 264 0178 130101FF 		addi	sp,sp,-16
 265              		.cfi_def_cfa_offset 16
 266 017c 23348100 		sd	s0,8(sp)
 267              		.cfi_offset 8, -8
 268 0180 13040101 		addi	s0,sp,16
 269              		.cfi_def_cfa 8, 0
 129:src/MemoryAllocator.cpp ****     if(fragment==nullptr || free_mem_head==nullptr) return;
 270              		.loc 1 129 5
 271 0184 63080502 		beqz	a0,.L18
 272              		.loc 1 129 42 is_stmt 0 discriminator 2
 273 0188 97070000 		ld	a5,.LANCHOR0
 273      83B70700 
 274              		.loc 1 129 26 discriminator 2
 275 0190 63820702 		beqz	a5,.L18
 130:src/MemoryAllocator.cpp **** 
 131:src/MemoryAllocator.cpp ****     //ako je glava
 132:src/MemoryAllocator.cpp ****     if(fragment==free_mem_head){
 276              		.loc 1 132 5 is_stmt 1
 277 0194 6386A702 		beq	a5,a0,.L24
 133:src/MemoryAllocator.cpp ****         free_mem_head=free_mem_head->next;
 134:src/MemoryAllocator.cpp ****         if(free_mem_head) {
 135:src/MemoryAllocator.cpp ****             free_mem_head->prev = nullptr;
 136:src/MemoryAllocator.cpp ****         }
 137:src/MemoryAllocator.cpp ****         fragment->next=nullptr;
 138:src/MemoryAllocator.cpp ****         fragment->prev=nullptr;
 139:src/MemoryAllocator.cpp ****         return;
 140:src/MemoryAllocator.cpp ****     }
 141:src/MemoryAllocator.cpp **** 
 142:src/MemoryAllocator.cpp ****     MemFragment* levi = fragment->prev;
 278              		.loc 1 142 5
 279              		.loc 1 142 18 is_stmt 0
 280 0198 03378500 		ld	a4,8(a0)
 281              	.LVL12:
 143:src/MemoryAllocator.cpp ****     MemFragment* desni = fragment->next;
 282              		.loc 1 143 5 is_stmt 1
 283              		.loc 1 143 18 is_stmt 0
 284 019c 83370500 		ld	a5,0(a0)
 285              	.LVL13:
 144:src/MemoryAllocator.cpp **** 
 145:src/MemoryAllocator.cpp ****     levi->next=desni;
 286              		.loc 1 145 5 is_stmt 1
 287              		.loc 1 145 15 is_stmt 0
 288 01a0 2330F700 		sd	a5,0(a4)
 146:src/MemoryAllocator.cpp ****     if(desni != nullptr) desni->prev=levi;
 289              		.loc 1 146 5 is_stmt 1
 290 01a4 63840700 		beqz	a5,.L22
 291              		.loc 1 146 26 discriminator 1
 292              		.loc 1 146 37 is_stmt 0 discriminator 1
 293 01a8 23B4E700 		sd	a4,8(a5)
 294              	.L22:
 147:src/MemoryAllocator.cpp ****     fragment->next=nullptr;
 295              		.loc 1 147 5 is_stmt 1
 296              		.loc 1 147 19 is_stmt 0
 297 01ac 23300500 		sd	zero,0(a0)
 148:src/MemoryAllocator.cpp ****     fragment->prev=nullptr;
 298              		.loc 1 148 5 is_stmt 1
GAS LISTING /tmp/ccdOlijK.s 			page 10


 299              		.loc 1 148 19 is_stmt 0
 300 01b0 23340500 		sd	zero,8(a0)
 149:src/MemoryAllocator.cpp ****     return;
 301              		.loc 1 149 5 is_stmt 1
 302              	.LVL14:
 303              	.L18:
 150:src/MemoryAllocator.cpp **** }
 304              		.loc 1 150 1 is_stmt 0
 305 01b4 03348100 		ld	s0,8(sp)
 306              		.cfi_remember_state
 307              		.cfi_restore 8
 308              		.cfi_def_cfa 2, 16
 309 01b8 13010101 		addi	sp,sp,16
 310              		.cfi_def_cfa_offset 0
 311 01bc 67800000 		jr	ra
 312              	.L24:
 313              		.cfi_restore_state
 133:src/MemoryAllocator.cpp ****         if(free_mem_head) {
 314              		.loc 1 133 9 is_stmt 1
 133:src/MemoryAllocator.cpp ****         if(free_mem_head) {
 315              		.loc 1 133 38 is_stmt 0
 316 01c0 83B70700 		ld	a5,0(a5)
 133:src/MemoryAllocator.cpp ****         if(free_mem_head) {
 317              		.loc 1 133 22
 318 01c4 17070000 		sd	a5,.LANCHOR0,a4
 318      2330F700 
 134:src/MemoryAllocator.cpp ****             free_mem_head->prev = nullptr;
 319              		.loc 1 134 9 is_stmt 1
 320 01cc 63840700 		beqz	a5,.L21
 135:src/MemoryAllocator.cpp ****         }
 321              		.loc 1 135 13
 135:src/MemoryAllocator.cpp ****         }
 322              		.loc 1 135 33 is_stmt 0
 323 01d0 23B40700 		sd	zero,8(a5)
 324              	.L21:
 137:src/MemoryAllocator.cpp ****         fragment->prev=nullptr;
 325              		.loc 1 137 9 is_stmt 1
 137:src/MemoryAllocator.cpp ****         fragment->prev=nullptr;
 326              		.loc 1 137 23 is_stmt 0
 327 01d4 23300500 		sd	zero,0(a0)
 138:src/MemoryAllocator.cpp ****         return;
 328              		.loc 1 138 9 is_stmt 1
 138:src/MemoryAllocator.cpp ****         return;
 329              		.loc 1 138 23 is_stmt 0
 330 01d8 23340500 		sd	zero,8(a0)
 139:src/MemoryAllocator.cpp ****     }
 331              		.loc 1 139 9 is_stmt 1
 332 01dc 6FF09FFD 		j	.L18
 333              		.cfi_endproc
 334              	.LFE4:
 336              		.align	2
 337              		.globl	_ZN15MemoryAllocator9add_to_alEP11MemFragment
 339              	_ZN15MemoryAllocator9add_to_alEP11MemFragment:
 340              	.LFB5:
 151:src/MemoryAllocator.cpp **** 
 152:src/MemoryAllocator.cpp **** void MemoryAllocator::add_to_al(MemFragment* fragment) {
 341              		.loc 1 152 56
GAS LISTING /tmp/ccdOlijK.s 			page 11


 342              		.cfi_startproc
 343              	.LVL15:
 344 01e0 130101FF 		addi	sp,sp,-16
 345              		.cfi_def_cfa_offset 16
 346 01e4 23348100 		sd	s0,8(sp)
 347              		.cfi_offset 8, -8
 348 01e8 13040101 		addi	s0,sp,16
 349              		.cfi_def_cfa 8, 0
 153:src/MemoryAllocator.cpp ****     if(fragment==nullptr) return;
 350              		.loc 1 153 5
 351 01ec 630C0504 		beqz	a0,.L25
 154:src/MemoryAllocator.cpp ****     fragment->free=false;
 352              		.loc 1 154 5
 353              		.loc 1 154 19 is_stmt 0
 354 01f0 230C0500 		sb	zero,24(a0)
 155:src/MemoryAllocator.cpp **** 
 156:src/MemoryAllocator.cpp ****     if(allocated_head==nullptr){
 355              		.loc 1 156 5 is_stmt 1
 356              		.loc 1 156 22 is_stmt 0
 357 01f4 17070000 		ld	a4,.LANCHOR0+8
 357      03370700 
 358              		.loc 1 156 5
 359 01fc 63000702 		beqz	a4,.L33
 157:src/MemoryAllocator.cpp ****         allocated_head=fragment;
 158:src/MemoryAllocator.cpp ****         return;
 159:src/MemoryAllocator.cpp ****     }
 160:src/MemoryAllocator.cpp ****     if(fragment < allocated_head){
 360              		.loc 1 160 5 is_stmt 1
 361 0200 6364E502 		bgtu	a4,a0,.L34
 161:src/MemoryAllocator.cpp ****         fragment->next = allocated_head;
 162:src/MemoryAllocator.cpp ****         fragment->prev = nullptr;
 163:src/MemoryAllocator.cpp ****         allocated_head->prev = fragment;
 164:src/MemoryAllocator.cpp ****         allocated_head = fragment;
 165:src/MemoryAllocator.cpp ****         return;
 166:src/MemoryAllocator.cpp ****     }
 167:src/MemoryAllocator.cpp **** 
 168:src/MemoryAllocator.cpp ****     MemFragment* tren = allocated_head->next;
 362              		.loc 1 168 5
 363              		.loc 1 168 18 is_stmt 0
 364 0204 83370700 		ld	a5,0(a4)
 365              	.LVL16:
 169:src/MemoryAllocator.cpp ****     MemFragment* prev = allocated_head;
 366              		.loc 1 169 5 is_stmt 1
 367              	.L31:
 170:src/MemoryAllocator.cpp ****     while(tren!=nullptr){
 368              		.loc 1 170 5
 369              		.loc 1 170 15
 370 0208 638E0704 		beqz	a5,.L29
 171:src/MemoryAllocator.cpp ****         if(fragment<tren){
 371              		.loc 1 171 9
 372 020c 6362F504 		bgtu	a5,a0,.L35
 172:src/MemoryAllocator.cpp ****             prev->next=fragment;
 173:src/MemoryAllocator.cpp ****             tren->prev=fragment;
 174:src/MemoryAllocator.cpp ****             fragment->prev=prev;
 175:src/MemoryAllocator.cpp ****             fragment->next=tren;
 176:src/MemoryAllocator.cpp ****             return;
 177:src/MemoryAllocator.cpp ****         }
GAS LISTING /tmp/ccdOlijK.s 			page 12


 178:src/MemoryAllocator.cpp **** 
 179:src/MemoryAllocator.cpp ****         prev=tren;
 373              		.loc 1 179 9
 374              	.LVL17:
 180:src/MemoryAllocator.cpp ****         tren=tren->next;
 375              		.loc 1 180 9
 179:src/MemoryAllocator.cpp ****         tren=tren->next;
 376              		.loc 1 179 13 is_stmt 0
 377 0210 13870700 		mv	a4,a5
 378              		.loc 1 180 13
 379 0214 83B70700 		ld	a5,0(a5)
 380              	.LVL18:
 170:src/MemoryAllocator.cpp ****         if(fragment<tren){
 381              		.loc 1 170 5
 382 0218 6FF01FFF 		j	.L31
 383              	.LVL19:
 384              	.L33:
 157:src/MemoryAllocator.cpp ****         return;
 385              		.loc 1 157 9 is_stmt 1
 157:src/MemoryAllocator.cpp ****         return;
 386              		.loc 1 157 23 is_stmt 0
 387 021c 97070000 		sd	a0,.LANCHOR0+8,a5
 387      23B0A700 
 158:src/MemoryAllocator.cpp ****     }
 388              		.loc 1 158 9 is_stmt 1
 389 0224 6F000002 		j	.L25
 390              	.L34:
 161:src/MemoryAllocator.cpp ****         fragment->prev = nullptr;
 391              		.loc 1 161 9
 161:src/MemoryAllocator.cpp ****         fragment->prev = nullptr;
 392              		.loc 1 161 24 is_stmt 0
 393 0228 2330E500 		sd	a4,0(a0)
 162:src/MemoryAllocator.cpp ****         allocated_head->prev = fragment;
 394              		.loc 1 162 9 is_stmt 1
 162:src/MemoryAllocator.cpp ****         allocated_head->prev = fragment;
 395              		.loc 1 162 24 is_stmt 0
 396 022c 23340500 		sd	zero,8(a0)
 163:src/MemoryAllocator.cpp ****         allocated_head = fragment;
 397              		.loc 1 163 9 is_stmt 1
 163:src/MemoryAllocator.cpp ****         allocated_head = fragment;
 398              		.loc 1 163 25 is_stmt 0
 399 0230 97070000 		lla	a5,.LANCHOR0
 399      93870700 
 400 0238 03B78700 		ld	a4,8(a5)
 163:src/MemoryAllocator.cpp ****         allocated_head = fragment;
 401              		.loc 1 163 30
 402 023c 2334A700 		sd	a0,8(a4)
 164:src/MemoryAllocator.cpp ****         return;
 403              		.loc 1 164 9 is_stmt 1
 164:src/MemoryAllocator.cpp ****         return;
 404              		.loc 1 164 24 is_stmt 0
 405 0240 23B4A700 		sd	a0,8(a5)
 165:src/MemoryAllocator.cpp ****     }
 406              		.loc 1 165 9 is_stmt 1
 407              	.L25:
 181:src/MemoryAllocator.cpp ****     }
 182:src/MemoryAllocator.cpp ****     prev->next=fragment;
GAS LISTING /tmp/ccdOlijK.s 			page 13


 183:src/MemoryAllocator.cpp ****     fragment->prev=prev;
 184:src/MemoryAllocator.cpp ****     fragment->next=nullptr;
 185:src/MemoryAllocator.cpp ****     return;
 186:src/MemoryAllocator.cpp **** }
 408              		.loc 1 186 1 is_stmt 0
 409 0244 03348100 		ld	s0,8(sp)
 410              		.cfi_remember_state
 411              		.cfi_restore 8
 412              		.cfi_def_cfa 2, 16
 413 0248 13010101 		addi	sp,sp,16
 414              		.cfi_def_cfa_offset 0
 415 024c 67800000 		jr	ra
 416              	.LVL20:
 417              	.L35:
 418              		.cfi_restore_state
 172:src/MemoryAllocator.cpp ****             tren->prev=fragment;
 419              		.loc 1 172 13 is_stmt 1
 172:src/MemoryAllocator.cpp ****             tren->prev=fragment;
 420              		.loc 1 172 23 is_stmt 0
 421 0250 2330A700 		sd	a0,0(a4)
 173:src/MemoryAllocator.cpp ****             fragment->prev=prev;
 422              		.loc 1 173 13 is_stmt 1
 173:src/MemoryAllocator.cpp ****             fragment->prev=prev;
 423              		.loc 1 173 23 is_stmt 0
 424 0254 23B4A700 		sd	a0,8(a5)
 174:src/MemoryAllocator.cpp ****             fragment->next=tren;
 425              		.loc 1 174 13 is_stmt 1
 174:src/MemoryAllocator.cpp ****             fragment->next=tren;
 426              		.loc 1 174 27 is_stmt 0
 427 0258 2334E500 		sd	a4,8(a0)
 175:src/MemoryAllocator.cpp ****             return;
 428              		.loc 1 175 13 is_stmt 1
 175:src/MemoryAllocator.cpp ****             return;
 429              		.loc 1 175 27 is_stmt 0
 430 025c 2330F500 		sd	a5,0(a0)
 176:src/MemoryAllocator.cpp ****         }
 431              		.loc 1 176 13 is_stmt 1
 432 0260 6FF05FFE 		j	.L25
 433              	.L29:
 182:src/MemoryAllocator.cpp ****     fragment->prev=prev;
 434              		.loc 1 182 5
 182:src/MemoryAllocator.cpp ****     fragment->prev=prev;
 435              		.loc 1 182 15 is_stmt 0
 436 0264 2330A700 		sd	a0,0(a4)
 183:src/MemoryAllocator.cpp ****     fragment->next=nullptr;
 437              		.loc 1 183 5 is_stmt 1
 183:src/MemoryAllocator.cpp ****     fragment->next=nullptr;
 438              		.loc 1 183 19 is_stmt 0
 439 0268 2334E500 		sd	a4,8(a0)
 184:src/MemoryAllocator.cpp ****     return;
 440              		.loc 1 184 5 is_stmt 1
 184:src/MemoryAllocator.cpp ****     return;
 441              		.loc 1 184 19 is_stmt 0
 442 026c 23300500 		sd	zero,0(a0)
 185:src/MemoryAllocator.cpp **** }
 443              		.loc 1 185 5 is_stmt 1
 444 0270 6FF05FFD 		j	.L25
GAS LISTING /tmp/ccdOlijK.s 			page 14


 445              		.cfi_endproc
 446              	.LFE5:
 448              		.align	2
 449              		.globl	_ZN15MemoryAllocator8allocateEm
 451              	_ZN15MemoryAllocator8allocateEm:
 452              	.LFB1:
  19:src/MemoryAllocator.cpp ****     if(size<=0) return nullptr;
 453              		.loc 1 19 45
 454              		.cfi_startproc
 455              	.LVL21:
 456 0274 130101FE 		addi	sp,sp,-32
 457              		.cfi_def_cfa_offset 32
 458 0278 233C1100 		sd	ra,24(sp)
 459 027c 23388100 		sd	s0,16(sp)
 460 0280 23349100 		sd	s1,8(sp)
 461 0284 23302101 		sd	s2,0(sp)
 462              		.cfi_offset 1, -8
 463              		.cfi_offset 8, -16
 464              		.cfi_offset 9, -24
 465              		.cfi_offset 18, -32
 466 0288 13040102 		addi	s0,sp,32
 467              		.cfi_def_cfa 8, 0
  20:src/MemoryAllocator.cpp **** 
 468              		.loc 1 20 5
 469 028c 630E050A 		beqz	a0,.L42
  22:src/MemoryAllocator.cpp ****     if(size % MEM_BLOCK_SIZE > 0){
 470              		.loc 1 22 5
  22:src/MemoryAllocator.cpp ****     if(size % MEM_BLOCK_SIZE > 0){
 471              		.loc 1 22 12 is_stmt 0
 472 0290 13596500 		srli	s2,a0,6
 473              	.LVL22:
  23:src/MemoryAllocator.cpp ****         my_size++;
 474              		.loc 1 23 5 is_stmt 1
  23:src/MemoryAllocator.cpp ****         my_size++;
 475              		.loc 1 23 13 is_stmt 0
 476 0294 1375F503 		andi	a0,a0,63
 477              	.LVL23:
  23:src/MemoryAllocator.cpp ****         my_size++;
 478              		.loc 1 23 5
 479 0298 63040500 		beqz	a0,.L38
  24:src/MemoryAllocator.cpp ****     }
 480              		.loc 1 24 9 is_stmt 1
  24:src/MemoryAllocator.cpp ****     }
 481              		.loc 1 24 16 is_stmt 0
 482 029c 13091900 		addi	s2,s2,1
 483              	.LVL24:
 484              	.L38:
  26:src/MemoryAllocator.cpp **** 
 485              		.loc 1 26 5 is_stmt 1
  26:src/MemoryAllocator.cpp **** 
 486              		.loc 1 26 13 is_stmt 0
 487 02a0 13196900 		slli	s2,s2,6
 488              	.LVL25:
  28:src/MemoryAllocator.cpp **** 
 489              		.loc 1 28 5 is_stmt 1
  28:src/MemoryAllocator.cpp **** 
 490              		.loc 1 28 18 is_stmt 0
GAS LISTING /tmp/ccdOlijK.s 			page 15


 491 02a4 97040000 		ld	s1,.LANCHOR0
 491      83B40400 
 492              	.LVL26:
 493 02ac 6F000004 		j	.L41
 494              	.L44:
 495              	.LBB5:
 496              	.LBB6:
  32:src/MemoryAllocator.cpp ****             add_to_al(tren);
 497              		.loc 1 32 13 is_stmt 1
  32:src/MemoryAllocator.cpp ****             add_to_al(tren);
 498              		.loc 1 32 28 is_stmt 0
 499 02b0 13850400 		mv	a0,s1
 500 02b4 97000000 		call	_ZN15MemoryAllocator15discard_from_flEP11MemFragment
 500      E7800000 
 501              	.LVL27:
  33:src/MemoryAllocator.cpp ****             return (void*)( (char*)tren + MEM_BLOCK_SIZE);
 502              		.loc 1 33 13 is_stmt 1
  33:src/MemoryAllocator.cpp ****             return (void*)( (char*)tren + MEM_BLOCK_SIZE);
 503              		.loc 1 33 22 is_stmt 0
 504 02bc 13850400 		mv	a0,s1
 505 02c0 97000000 		call	_ZN15MemoryAllocator9add_to_alEP11MemFragment
 505      E7800000 
 506              	.LVL28:
  34:src/MemoryAllocator.cpp ****         }
 507              		.loc 1 34 13 is_stmt 1
  34:src/MemoryAllocator.cpp ****         }
 508              		.loc 1 34 57 is_stmt 0
 509 02c8 93840404 		addi	s1,s1,64
 510              	.LVL29:
 511              	.L36:
 512              	.LBE6:
 513              	.LBE5:
  54:src/MemoryAllocator.cpp **** 
 514              		.loc 1 54 1
 515 02cc 13850400 		mv	a0,s1
 516 02d0 83308101 		ld	ra,24(sp)
 517              		.cfi_remember_state
 518              		.cfi_restore 1
 519 02d4 03340101 		ld	s0,16(sp)
 520              		.cfi_restore 8
 521              		.cfi_def_cfa 2, 32
 522 02d8 83348100 		ld	s1,8(sp)
 523              		.cfi_restore 9
 524 02dc 03390100 		ld	s2,0(sp)
 525              		.cfi_restore 18
 526 02e0 13010102 		addi	sp,sp,32
 527              		.cfi_def_cfa_offset 0
 528 02e4 67800000 		jr	ra
 529              	.LVL30:
 530              	.L40:
 531              		.cfi_restore_state
 532              	.LBB11:
  50:src/MemoryAllocator.cpp ****     }
 533              		.loc 1 50 9 is_stmt 1
  50:src/MemoryAllocator.cpp ****     }
 534              		.loc 1 50 13 is_stmt 0
 535 02e8 83B40400 		ld	s1,0(s1)
GAS LISTING /tmp/ccdOlijK.s 			page 16


 536              	.LVL31:
 537              	.L41:
 538              	.LBE11:
  30:src/MemoryAllocator.cpp ****         if(tren->size == my_size){
 539              		.loc 1 30 5 is_stmt 1
  30:src/MemoryAllocator.cpp ****         if(tren->size == my_size){
 540              		.loc 1 30 15
 541 02ec E38004FE 		beqz	s1,.L36
 542              	.LBB12:
  31:src/MemoryAllocator.cpp ****             discard_from_fl(tren);
 543              		.loc 1 31 9
 544              	.LBB9:
  31:src/MemoryAllocator.cpp ****             discard_from_fl(tren);
 545              		.loc 1 31 18 is_stmt 0
 546 02f0 83B70401 		ld	a5,16(s1)
  31:src/MemoryAllocator.cpp ****             discard_from_fl(tren);
 547              		.loc 1 31 9
 548 02f4 E38E27FB 		beq	a5,s2,.L44
 549              	.LBE9:
 550              	.LBE12:
  36:src/MemoryAllocator.cpp ****             discard_from_fl(tren);
 551              		.loc 1 36 14 is_stmt 1
 552              	.LBB13:
 553              	.LBB10:
 554              	.LBB7:
 555 02f8 E378F9FE 		bleu	a5,s2,.L40
 556              	.LBB8:
  37:src/MemoryAllocator.cpp **** 
 557              		.loc 1 37 13
  37:src/MemoryAllocator.cpp **** 
 558              		.loc 1 37 28 is_stmt 0
 559 02fc 13850400 		mv	a0,s1
 560 0300 97000000 		call	_ZN15MemoryAllocator15discard_from_flEP11MemFragment
 560      E7800000 
 561              	.LVL32:
  39:src/MemoryAllocator.cpp ****             new_free_frag->size=(tren->size - MEM_BLOCK_SIZE - my_size);
 562              		.loc 1 39 13 is_stmt 1
  39:src/MemoryAllocator.cpp ****             new_free_frag->size=(tren->size - MEM_BLOCK_SIZE - my_size);
 563              		.loc 1 39 85 is_stmt 0
 564 0308 13050904 		addi	a0,s2,64
  39:src/MemoryAllocator.cpp ****             new_free_frag->size=(tren->size - MEM_BLOCK_SIZE - my_size);
 565              		.loc 1 39 26
 566 030c 3385A400 		add	a0,s1,a0
 567              	.LVL33:
  40:src/MemoryAllocator.cpp ****             new_free_frag->next= nullptr;
 568              		.loc 1 40 13 is_stmt 1
  40:src/MemoryAllocator.cpp ****             new_free_frag->next= nullptr;
 569              		.loc 1 40 40 is_stmt 0
 570 0310 83B70401 		ld	a5,16(s1)
  40:src/MemoryAllocator.cpp ****             new_free_frag->next= nullptr;
 571              		.loc 1 40 62
 572 0314 B3872741 		sub	a5,a5,s2
 573 0318 938707FC 		addi	a5,a5,-64
  40:src/MemoryAllocator.cpp ****             new_free_frag->next= nullptr;
 574              		.loc 1 40 32
 575 031c 2338F500 		sd	a5,16(a0)
  41:src/MemoryAllocator.cpp ****             new_free_frag->prev= nullptr;
GAS LISTING /tmp/ccdOlijK.s 			page 17


 576              		.loc 1 41 13 is_stmt 1
  41:src/MemoryAllocator.cpp ****             new_free_frag->prev= nullptr;
 577              		.loc 1 41 32 is_stmt 0
 578 0320 23300500 		sd	zero,0(a0)
  42:src/MemoryAllocator.cpp ****             add_to_fl(new_free_frag);
 579              		.loc 1 42 13 is_stmt 1
  42:src/MemoryAllocator.cpp ****             add_to_fl(new_free_frag);
 580              		.loc 1 42 32 is_stmt 0
 581 0324 23340500 		sd	zero,8(a0)
  43:src/MemoryAllocator.cpp **** 
 582              		.loc 1 43 13 is_stmt 1
  43:src/MemoryAllocator.cpp **** 
 583              		.loc 1 43 22 is_stmt 0
 584 0328 97000000 		call	_ZN15MemoryAllocator9add_to_flEP11MemFragment
 584      E7800000 
 585              	.LVL34:
  45:src/MemoryAllocator.cpp ****             add_to_al(tren);
 586              		.loc 1 45 13 is_stmt 1
  45:src/MemoryAllocator.cpp ****             add_to_al(tren);
 587              		.loc 1 45 23 is_stmt 0
 588 0330 23B82401 		sd	s2,16(s1)
  46:src/MemoryAllocator.cpp ****             return (void*)((char*)tren + MEM_BLOCK_SIZE);
 589              		.loc 1 46 13 is_stmt 1
  46:src/MemoryAllocator.cpp ****             return (void*)((char*)tren + MEM_BLOCK_SIZE);
 590              		.loc 1 46 22 is_stmt 0
 591 0334 13850400 		mv	a0,s1
 592 0338 97000000 		call	_ZN15MemoryAllocator9add_to_alEP11MemFragment
 592      E7800000 
 593              	.LVL35:
  47:src/MemoryAllocator.cpp ****         }
 594              		.loc 1 47 13 is_stmt 1
  47:src/MemoryAllocator.cpp ****         }
 595              		.loc 1 47 56 is_stmt 0
 596 0340 93840404 		addi	s1,s1,64
 597              	.LVL36:
 598 0344 6FF09FF8 		j	.L36
 599              	.LVL37:
 600              	.L42:
 601              	.LBE8:
 602              	.LBE7:
 603              	.LBE10:
 604              	.LBE13:
  20:src/MemoryAllocator.cpp **** 
 605              		.loc 1 20 24
 606 0348 93040000 		li	s1,0
 607 034c 6FF01FF8 		j	.L36
 608              		.cfi_endproc
 609              	.LFE1:
 611              		.align	2
 612              		.globl	_ZN15MemoryAllocator15discard_from_alEP11MemFragment
 614              	_ZN15MemoryAllocator15discard_from_alEP11MemFragment:
 615              	.LFB6:
 187:src/MemoryAllocator.cpp **** 
 188:src/MemoryAllocator.cpp **** void MemoryAllocator::discard_from_al(MemFragment* fragment) {
 616              		.loc 1 188 62 is_stmt 1
 617              		.cfi_startproc
 618              	.LVL38:
GAS LISTING /tmp/ccdOlijK.s 			page 18


 619 0350 130101FF 		addi	sp,sp,-16
 620              		.cfi_def_cfa_offset 16
 621 0354 23348100 		sd	s0,8(sp)
 622              		.cfi_offset 8, -8
 623 0358 13040101 		addi	s0,sp,16
 624              		.cfi_def_cfa 8, 0
 189:src/MemoryAllocator.cpp ****     if(fragment==nullptr || allocated_head==nullptr) return;
 625              		.loc 1 189 5
 626 035c 63080502 		beqz	a0,.L45
 627              		.loc 1 189 43 is_stmt 0 discriminator 2
 628 0360 97070000 		ld	a5,.LANCHOR0+8
 628      83B70700 
 629              		.loc 1 189 26 discriminator 2
 630 0368 63820702 		beqz	a5,.L45
 190:src/MemoryAllocator.cpp **** 
 191:src/MemoryAllocator.cpp ****     if(fragment==allocated_head){
 631              		.loc 1 191 5 is_stmt 1
 632 036c 6386A702 		beq	a5,a0,.L51
 192:src/MemoryAllocator.cpp ****         allocated_head=allocated_head->next;
 193:src/MemoryAllocator.cpp ****         if(allocated_head!=nullptr)allocated_head->prev=nullptr;
 194:src/MemoryAllocator.cpp ****         fragment->next=nullptr;
 195:src/MemoryAllocator.cpp ****         fragment->prev=nullptr;
 196:src/MemoryAllocator.cpp ****         return;
 197:src/MemoryAllocator.cpp ****     }
 198:src/MemoryAllocator.cpp **** 
 199:src/MemoryAllocator.cpp ****     MemFragment* levi = fragment->prev;
 633              		.loc 1 199 5
 634              		.loc 1 199 18 is_stmt 0
 635 0370 03378500 		ld	a4,8(a0)
 636              	.LVL39:
 200:src/MemoryAllocator.cpp ****     MemFragment* desni = fragment->next;
 637              		.loc 1 200 5 is_stmt 1
 638              		.loc 1 200 18 is_stmt 0
 639 0374 83370500 		ld	a5,0(a0)
 640              	.LVL40:
 201:src/MemoryAllocator.cpp **** 
 202:src/MemoryAllocator.cpp ****     levi->next=desni;
 641              		.loc 1 202 5 is_stmt 1
 642              		.loc 1 202 15 is_stmt 0
 643 0378 2330F700 		sd	a5,0(a4)
 203:src/MemoryAllocator.cpp ****     if(desni != nullptr) desni->prev=levi;
 644              		.loc 1 203 5 is_stmt 1
 645 037c 63840700 		beqz	a5,.L49
 646              		.loc 1 203 26 discriminator 1
 647              		.loc 1 203 37 is_stmt 0 discriminator 1
 648 0380 23B4E700 		sd	a4,8(a5)
 649              	.L49:
 204:src/MemoryAllocator.cpp ****     fragment->next=nullptr;
 650              		.loc 1 204 5 is_stmt 1
 651              		.loc 1 204 19 is_stmt 0
 652 0384 23300500 		sd	zero,0(a0)
 205:src/MemoryAllocator.cpp ****     fragment->prev=nullptr;
 653              		.loc 1 205 5 is_stmt 1
 654              		.loc 1 205 19 is_stmt 0
 655 0388 23340500 		sd	zero,8(a0)
 206:src/MemoryAllocator.cpp ****     return;
 656              		.loc 1 206 5 is_stmt 1
GAS LISTING /tmp/ccdOlijK.s 			page 19


 657              	.LVL41:
 658              	.L45:
 207:src/MemoryAllocator.cpp **** }
 659              		.loc 1 207 1 is_stmt 0
 660 038c 03348100 		ld	s0,8(sp)
 661              		.cfi_remember_state
 662              		.cfi_restore 8
 663              		.cfi_def_cfa 2, 16
 664 0390 13010101 		addi	sp,sp,16
 665              		.cfi_def_cfa_offset 0
 666 0394 67800000 		jr	ra
 667              	.L51:
 668              		.cfi_restore_state
 192:src/MemoryAllocator.cpp ****         if(allocated_head!=nullptr)allocated_head->prev=nullptr;
 669              		.loc 1 192 9 is_stmt 1
 192:src/MemoryAllocator.cpp ****         if(allocated_head!=nullptr)allocated_head->prev=nullptr;
 670              		.loc 1 192 40 is_stmt 0
 671 0398 83B70700 		ld	a5,0(a5)
 192:src/MemoryAllocator.cpp ****         if(allocated_head!=nullptr)allocated_head->prev=nullptr;
 672              		.loc 1 192 23
 673 039c 17070000 		sd	a5,.LANCHOR0+8,a4
 673      2330F700 
 193:src/MemoryAllocator.cpp ****         fragment->next=nullptr;
 674              		.loc 1 193 9 is_stmt 1
 675 03a4 63840700 		beqz	a5,.L48
 193:src/MemoryAllocator.cpp ****         fragment->next=nullptr;
 676              		.loc 1 193 36 discriminator 1
 193:src/MemoryAllocator.cpp ****         fragment->next=nullptr;
 677              		.loc 1 193 56 is_stmt 0 discriminator 1
 678 03a8 23B40700 		sd	zero,8(a5)
 679              	.L48:
 194:src/MemoryAllocator.cpp ****         fragment->prev=nullptr;
 680              		.loc 1 194 9 is_stmt 1
 194:src/MemoryAllocator.cpp ****         fragment->prev=nullptr;
 681              		.loc 1 194 23 is_stmt 0
 682 03ac 23300500 		sd	zero,0(a0)
 195:src/MemoryAllocator.cpp ****         return;
 683              		.loc 1 195 9 is_stmt 1
 195:src/MemoryAllocator.cpp ****         return;
 684              		.loc 1 195 23 is_stmt 0
 685 03b0 23340500 		sd	zero,8(a0)
 196:src/MemoryAllocator.cpp ****     }
 686              		.loc 1 196 9 is_stmt 1
 687 03b4 6FF09FFD 		j	.L45
 688              		.cfi_endproc
 689              	.LFE6:
 691              		.align	2
 692              		.globl	_ZN15MemoryAllocator11free_memoryEPv
 694              	_ZN15MemoryAllocator11free_memoryEPv:
 695              	.LFB2:
  56:src/MemoryAllocator.cpp ****     if(ptr==nullptr) return -2;
 696              		.loc 1 56 45
 697              		.cfi_startproc
 698              	.LVL42:
  57:src/MemoryAllocator.cpp **** 
 699              		.loc 1 57 5
 700 03b8 630A0504 		beqz	a0,.L54
GAS LISTING /tmp/ccdOlijK.s 			page 20


  56:src/MemoryAllocator.cpp ****     if(ptr==nullptr) return -2;
 701              		.loc 1 56 45 is_stmt 0
 702 03bc 130101FE 		addi	sp,sp,-32
 703              		.cfi_def_cfa_offset 32
 704 03c0 233C1100 		sd	ra,24(sp)
 705 03c4 23388100 		sd	s0,16(sp)
 706 03c8 23349100 		sd	s1,8(sp)
 707              		.cfi_offset 1, -8
 708              		.cfi_offset 8, -16
 709              		.cfi_offset 9, -24
 710 03cc 13040102 		addi	s0,sp,32
 711              		.cfi_def_cfa 8, 0
  59:src/MemoryAllocator.cpp ****     if(!fragment->free){
 712              		.loc 1 59 5 is_stmt 1
  59:src/MemoryAllocator.cpp ****     if(!fragment->free){
 713              		.loc 1 59 18 is_stmt 0
 714 03d0 930405FC 		addi	s1,a0,-64
 715              	.LVL43:
  60:src/MemoryAllocator.cpp ****         discard_from_al(fragment);
 716              		.loc 1 60 5 is_stmt 1
  60:src/MemoryAllocator.cpp ****         discard_from_al(fragment);
 717              		.loc 1 60 19 is_stmt 0
 718 03d4 834785FD 		lbu	a5,-40(a0)
  60:src/MemoryAllocator.cpp ****         discard_from_al(fragment);
 719              		.loc 1 60 5
 720 03d8 639E0702 		bnez	a5,.L55
  61:src/MemoryAllocator.cpp ****         add_to_fl(fragment);
 721              		.loc 1 61 9 is_stmt 1
  61:src/MemoryAllocator.cpp ****         add_to_fl(fragment);
 722              		.loc 1 61 24 is_stmt 0
 723 03dc 13850400 		mv	a0,s1
 724              	.LVL44:
 725 03e0 97000000 		call	_ZN15MemoryAllocator15discard_from_alEP11MemFragment
 725      E7800000 
 726              	.LVL45:
  62:src/MemoryAllocator.cpp ****         return 0;
 727              		.loc 1 62 9 is_stmt 1
  62:src/MemoryAllocator.cpp ****         return 0;
 728              		.loc 1 62 18 is_stmt 0
 729 03e8 13850400 		mv	a0,s1
 730 03ec 97000000 		call	_ZN15MemoryAllocator9add_to_flEP11MemFragment
 730      E7800000 
 731              	.LVL46:
  63:src/MemoryAllocator.cpp ****     }
 732              		.loc 1 63 9 is_stmt 1
  63:src/MemoryAllocator.cpp ****     }
 733              		.loc 1 63 16 is_stmt 0
 734 03f4 13050000 		li	a0,0
 735              	.L53:
  66:src/MemoryAllocator.cpp **** 
 736              		.loc 1 66 1
 737 03f8 83308101 		ld	ra,24(sp)
 738              		.cfi_restore 1
 739 03fc 03340101 		ld	s0,16(sp)
 740              		.cfi_restore 8
 741              		.cfi_def_cfa 2, 32
 742 0400 83348100 		ld	s1,8(sp)
GAS LISTING /tmp/ccdOlijK.s 			page 21


 743              		.cfi_restore 9
 744              	.LVL47:
 745 0404 13010102 		addi	sp,sp,32
 746              		.cfi_def_cfa_offset 0
 747 0408 67800000 		jr	ra
 748              	.LVL48:
 749              	.L54:
  57:src/MemoryAllocator.cpp **** 
 750              		.loc 1 57 30
 751 040c 1305E0FF 		li	a0,-2
 752              	.LVL49:
  66:src/MemoryAllocator.cpp **** 
 753              		.loc 1 66 1
 754 0410 67800000 		ret
 755              	.LVL50:
 756              	.L55:
 757              		.cfi_def_cfa_register 8
 758              		.cfi_offset 1, -8
 759              		.cfi_offset 8, -16
 760              		.cfi_offset 9, -24
  65:src/MemoryAllocator.cpp **** }
 761              		.loc 1 65 13
 762 0414 1305C0FF 		li	a0,-4
 763              	.LVL51:
 764 0418 6FF01FFE 		j	.L53
 765              		.cfi_endproc
 766              	.LFE2:
 768              		.globl	_ZN15MemoryAllocator14allocated_headE
 769              		.globl	_ZN15MemoryAllocator13free_mem_headE
 770              		.bss
 771              		.align	3
 772              		.set	.LANCHOR0,. + 0
 775              	_ZN15MemoryAllocator13free_mem_headE:
 776 0000 00000000 		.zero	8
 776      00000000 
 779              	_ZN15MemoryAllocator14allocated_headE:
 780 0008 00000000 		.zero	8
 780      00000000 
 781              		.text
 782              	.Letext0:
 783              		.file 2 "src/../h/../lib/hw.h"
 784              		.file 3 "src/../h/MemoryAllocator.hpp"
GAS LISTING /tmp/ccdOlijK.s 			page 22


DEFINED SYMBOLS
                            *ABS*:0000000000000000 MemoryAllocator.cpp
     /tmp/ccdOlijK.s:9      .text:0000000000000000 _ZN15MemoryAllocator10initMemoryEv
     /tmp/ccdOlijK.s:13     .text:0000000000000000 .L0 
     /tmp/ccdOlijK.s:14     .text:0000000000000000 .L0 
     /tmp/ccdOlijK.s:15     .text:0000000000000004 .L0 
     /tmp/ccdOlijK.s:17     .text:0000000000000008 .L0 
     /tmp/ccdOlijK.s:19     .text:000000000000000c .L0 
     /tmp/ccdOlijK.s:21     .text:000000000000000c .L0 
     /tmp/ccdOlijK.s:22     .text:000000000000000c .L0 
     /tmp/ccdOlijK.s:27     .text:0000000000000024 .L0 
     /tmp/ccdOlijK.s:28     .text:0000000000000024 .L0 
     /tmp/ccdOlijK.s:30     .text:0000000000000028 .L0 
     /tmp/ccdOlijK.s:31     .text:0000000000000028 .L0 
     /tmp/ccdOlijK.s:33     .text:000000000000002c .L0 
     /tmp/ccdOlijK.s:35     .text:0000000000000030 .L0 
     /tmp/ccdOlijK.s:36     .text:0000000000000030 .L0 
     /tmp/ccdOlijK.s:39     .text:0000000000000038 .L0 
     /tmp/ccdOlijK.s:40     .text:0000000000000038 .L0 
     /tmp/ccdOlijK.s:43     .text:0000000000000044 .L0 
     /tmp/ccdOlijK.s:45     .text:0000000000000048 .L0 
     /tmp/ccdOlijK.s:47     .text:000000000000004c .L0 
     /tmp/ccdOlijK.s:49     .text:0000000000000050 .L0 
     /tmp/ccdOlijK.s:51     .text:0000000000000054 .L0 
     /tmp/ccdOlijK.s:53     .text:0000000000000058 .L0 
     /tmp/ccdOlijK.s:54     .text:000000000000005c .L0 
     /tmp/ccdOlijK.s:55     .text:000000000000005c .L0 
     /tmp/ccdOlijK.s:57     .text:0000000000000060 .L0 
     /tmp/ccdOlijK.s:59     .text:0000000000000064 .L0 
     /tmp/ccdOlijK.s:65     .text:0000000000000064 _ZN15MemoryAllocator9add_to_flEP11MemFragment
     /tmp/ccdOlijK.s:68     .text:0000000000000064 .L0 
     /tmp/ccdOlijK.s:70     .text:0000000000000064 .L0 
     /tmp/ccdOlijK.s:71     .text:0000000000000068 .L0 
     /tmp/ccdOlijK.s:73     .text:000000000000006c .L0 
     /tmp/ccdOlijK.s:75     .text:0000000000000070 .L0 
     /tmp/ccdOlijK.s:77     .text:0000000000000070 .L0 
     /tmp/ccdOlijK.s:79     .text:0000000000000074 .L0 
     /tmp/ccdOlijK.s:80     .text:0000000000000074 .L0 
     /tmp/ccdOlijK.s:83     .text:000000000000007c .L0 
     /tmp/ccdOlijK.s:84     .text:000000000000007c .L0 
     /tmp/ccdOlijK.s:86     .text:0000000000000084 .L0 
     /tmp/ccdOlijK.s:89     .text:0000000000000088 .L0 
     /tmp/ccdOlijK.s:92     .text:000000000000008c .L0 
     /tmp/ccdOlijK.s:93     .text:000000000000008c .L0 
     /tmp/ccdOlijK.s:97     .text:0000000000000090 .L0 
     /tmp/ccdOlijK.s:98     .text:0000000000000090 .L0 
     /tmp/ccdOlijK.s:99     .text:0000000000000090 .L0 
     /tmp/ccdOlijK.s:101    .text:0000000000000094 .L0 
     /tmp/ccdOlijK.s:104    .text:0000000000000098 .L0 
     /tmp/ccdOlijK.s:105    .text:0000000000000098 .L0 
     /tmp/ccdOlijK.s:106    .text:0000000000000098 .L0 
     /tmp/ccdOlijK.s:108    .text:000000000000009c .L0 
     /tmp/ccdOlijK.s:111    .text:00000000000000a0 .L0 
     /tmp/ccdOlijK.s:115    .text:00000000000000a4 .L0 
     /tmp/ccdOlijK.s:116    .text:00000000000000a4 .L0 
     /tmp/ccdOlijK.s:118    .text:00000000000000ac .L0 
     /tmp/ccdOlijK.s:123    .text:00000000000000b0 .L0 
GAS LISTING /tmp/ccdOlijK.s 			page 23


     /tmp/ccdOlijK.s:124    .text:00000000000000b0 .L0 
     /tmp/ccdOlijK.s:126    .text:00000000000000b4 .L0 
     /tmp/ccdOlijK.s:127    .text:00000000000000b4 .L0 
     /tmp/ccdOlijK.s:129    .text:00000000000000b8 .L0 
     /tmp/ccdOlijK.s:130    .text:00000000000000b8 .L0 
     /tmp/ccdOlijK.s:133    .text:00000000000000c4 .L0 
     /tmp/ccdOlijK.s:135    .text:00000000000000c8 .L0 
     /tmp/ccdOlijK.s:136    .text:00000000000000c8 .L0 
     /tmp/ccdOlijK.s:138    .text:00000000000000cc .L0 
     /tmp/ccdOlijK.s:139    .text:00000000000000cc .L0 
     /tmp/ccdOlijK.s:142    .text:00000000000000d0 .L0 
     /tmp/ccdOlijK.s:143    .text:00000000000000d0 .L0 
     /tmp/ccdOlijK.s:145    .text:00000000000000d4 .L0 
     /tmp/ccdOlijK.s:148    .text:00000000000000dc .L0 
     /tmp/ccdOlijK.s:150    .text:00000000000000e0 .L0 
     /tmp/ccdOlijK.s:151    .text:00000000000000e0 .L0 
     /tmp/ccdOlijK.s:153    .text:00000000000000e4 .L0 
     /tmp/ccdOlijK.s:155    .text:00000000000000e8 .L0 
     /tmp/ccdOlijK.s:157    .text:00000000000000ec .L0 
     /tmp/ccdOlijK.s:159    .text:00000000000000f0 .L0 
     /tmp/ccdOlijK.s:160    .text:00000000000000f0 .L0 
     /tmp/ccdOlijK.s:162    .text:00000000000000f4 .L0 
     /tmp/ccdOlijK.s:164    .text:00000000000000f8 .L0 
     /tmp/ccdOlijK.s:166    .text:00000000000000fc .L0 
     /tmp/ccdOlijK.s:167    .text:00000000000000fc .L0 
     /tmp/ccdOlijK.s:171    .text:0000000000000108 .L0 
     /tmp/ccdOlijK.s:172    .text:0000000000000108 .L0 
     /tmp/ccdOlijK.s:174    .text:000000000000010c .L0 
     /tmp/ccdOlijK.s:175    .text:000000000000010c .L0 
     /tmp/ccdOlijK.s:177    .text:0000000000000110 .L0 
     /tmp/ccdOlijK.s:183    .text:0000000000000114 .L0 
     /tmp/ccdOlijK.s:184    .text:0000000000000114 .L0 
     /tmp/ccdOlijK.s:186    .text:0000000000000118 .L0 
     /tmp/ccdOlijK.s:187    .text:0000000000000118 .L0 
     /tmp/ccdOlijK.s:189    .text:000000000000011c .L0 
     /tmp/ccdOlijK.s:190    .text:000000000000011c .L0 
     /tmp/ccdOlijK.s:192    .text:0000000000000120 .L0 
     /tmp/ccdOlijK.s:193    .text:0000000000000120 .L0 
     /tmp/ccdOlijK.s:195    .text:0000000000000124 .L0 
     /tmp/ccdOlijK.s:196    .text:0000000000000124 .L0 
     /tmp/ccdOlijK.s:199    .text:0000000000000128 .L0 
     /tmp/ccdOlijK.s:202    .text:0000000000000130 .L0 
     /tmp/ccdOlijK.s:204    .text:0000000000000134 .L0 
     /tmp/ccdOlijK.s:205    .text:0000000000000134 .L0 
     /tmp/ccdOlijK.s:207    .text:0000000000000138 .L0 
     /tmp/ccdOlijK.s:209    .text:000000000000013c .L0 
     /tmp/ccdOlijK.s:211    .text:0000000000000140 .L0 
     /tmp/ccdOlijK.s:213    .text:0000000000000144 .L0 
     /tmp/ccdOlijK.s:214    .text:0000000000000144 .L0 
     /tmp/ccdOlijK.s:216    .text:0000000000000148 .L0 
     /tmp/ccdOlijK.s:218    .text:000000000000014c .L0 
     /tmp/ccdOlijK.s:220    .text:0000000000000150 .L0 
     /tmp/ccdOlijK.s:221    .text:0000000000000150 .L0 
     /tmp/ccdOlijK.s:225    .text:0000000000000154 .L0 
     /tmp/ccdOlijK.s:226    .text:0000000000000154 .L0 
     /tmp/ccdOlijK.s:228    .text:0000000000000158 .L0 
     /tmp/ccdOlijK.s:229    .text:0000000000000158 .L0 
GAS LISTING /tmp/ccdOlijK.s 			page 24


     /tmp/ccdOlijK.s:231    .text:000000000000015c .L0 
     /tmp/ccdOlijK.s:235    .text:0000000000000160 .L0 
     /tmp/ccdOlijK.s:236    .text:0000000000000160 .L0 
     /tmp/ccdOlijK.s:238    .text:0000000000000164 .L0 
     /tmp/ccdOlijK.s:239    .text:0000000000000164 .L0 
     /tmp/ccdOlijK.s:241    .text:0000000000000168 .L0 
     /tmp/ccdOlijK.s:242    .text:0000000000000168 .L0 
     /tmp/ccdOlijK.s:246    .text:000000000000016c .L0 
     /tmp/ccdOlijK.s:247    .text:000000000000016c .L0 
     /tmp/ccdOlijK.s:248    .text:0000000000000170 .L0 
     /tmp/ccdOlijK.s:249    .text:0000000000000170 .L0 
     /tmp/ccdOlijK.s:251    .text:0000000000000174 .L0 
     /tmp/ccdOlijK.s:253    .text:0000000000000178 .L0 
     /tmp/ccdOlijK.s:259    .text:0000000000000178 _ZN15MemoryAllocator15discard_from_flEP11MemFragment
     /tmp/ccdOlijK.s:262    .text:0000000000000178 .L0 
     /tmp/ccdOlijK.s:264    .text:0000000000000178 .L0 
     /tmp/ccdOlijK.s:265    .text:000000000000017c .L0 
     /tmp/ccdOlijK.s:267    .text:0000000000000180 .L0 
     /tmp/ccdOlijK.s:269    .text:0000000000000184 .L0 
     /tmp/ccdOlijK.s:271    .text:0000000000000184 .L0 
     /tmp/ccdOlijK.s:273    .text:0000000000000188 .L0 
     /tmp/ccdOlijK.s:275    .text:0000000000000190 .L0 
     /tmp/ccdOlijK.s:277    .text:0000000000000194 .L0 
     /tmp/ccdOlijK.s:279    .text:0000000000000198 .L0 
     /tmp/ccdOlijK.s:280    .text:0000000000000198 .L0 
     /tmp/ccdOlijK.s:283    .text:000000000000019c .L0 
     /tmp/ccdOlijK.s:284    .text:000000000000019c .L0 
     /tmp/ccdOlijK.s:287    .text:00000000000001a0 .L0 
     /tmp/ccdOlijK.s:288    .text:00000000000001a0 .L0 
     /tmp/ccdOlijK.s:290    .text:00000000000001a4 .L0 
     /tmp/ccdOlijK.s:292    .text:00000000000001a8 .L0 
     /tmp/ccdOlijK.s:293    .text:00000000000001a8 .L0 
     /tmp/ccdOlijK.s:296    .text:00000000000001ac .L0 
     /tmp/ccdOlijK.s:297    .text:00000000000001ac .L0 
     /tmp/ccdOlijK.s:299    .text:00000000000001b0 .L0 
     /tmp/ccdOlijK.s:300    .text:00000000000001b0 .L0 
     /tmp/ccdOlijK.s:304    .text:00000000000001b4 .L0 
     /tmp/ccdOlijK.s:305    .text:00000000000001b4 .L0 
     /tmp/ccdOlijK.s:306    .text:00000000000001b8 .L0 
     /tmp/ccdOlijK.s:307    .text:00000000000001b8 .L0 
     /tmp/ccdOlijK.s:308    .text:00000000000001b8 .L0 
     /tmp/ccdOlijK.s:310    .text:00000000000001bc .L0 
     /tmp/ccdOlijK.s:313    .text:00000000000001c0 .L0 
     /tmp/ccdOlijK.s:315    .text:00000000000001c0 .L0 
     /tmp/ccdOlijK.s:316    .text:00000000000001c0 .L0 
     /tmp/ccdOlijK.s:318    .text:00000000000001c4 .L0 
     /tmp/ccdOlijK.s:320    .text:00000000000001cc .L0 
     /tmp/ccdOlijK.s:322    .text:00000000000001d0 .L0 
     /tmp/ccdOlijK.s:323    .text:00000000000001d0 .L0 
     /tmp/ccdOlijK.s:326    .text:00000000000001d4 .L0 
     /tmp/ccdOlijK.s:327    .text:00000000000001d4 .L0 
     /tmp/ccdOlijK.s:329    .text:00000000000001d8 .L0 
     /tmp/ccdOlijK.s:330    .text:00000000000001d8 .L0 
     /tmp/ccdOlijK.s:332    .text:00000000000001dc .L0 
     /tmp/ccdOlijK.s:333    .text:00000000000001e0 .L0 
     /tmp/ccdOlijK.s:339    .text:00000000000001e0 _ZN15MemoryAllocator9add_to_alEP11MemFragment
     /tmp/ccdOlijK.s:342    .text:00000000000001e0 .L0 
GAS LISTING /tmp/ccdOlijK.s 			page 25


     /tmp/ccdOlijK.s:344    .text:00000000000001e0 .L0 
     /tmp/ccdOlijK.s:345    .text:00000000000001e4 .L0 
     /tmp/ccdOlijK.s:347    .text:00000000000001e8 .L0 
     /tmp/ccdOlijK.s:349    .text:00000000000001ec .L0 
     /tmp/ccdOlijK.s:351    .text:00000000000001ec .L0 
     /tmp/ccdOlijK.s:353    .text:00000000000001f0 .L0 
     /tmp/ccdOlijK.s:354    .text:00000000000001f0 .L0 
     /tmp/ccdOlijK.s:356    .text:00000000000001f4 .L0 
     /tmp/ccdOlijK.s:357    .text:00000000000001f4 .L0 
     /tmp/ccdOlijK.s:359    .text:00000000000001fc .L0 
     /tmp/ccdOlijK.s:361    .text:0000000000000200 .L0 
     /tmp/ccdOlijK.s:363    .text:0000000000000204 .L0 
     /tmp/ccdOlijK.s:364    .text:0000000000000204 .L0 
     /tmp/ccdOlijK.s:368    .text:0000000000000208 .L0 
     /tmp/ccdOlijK.s:369    .text:0000000000000208 .L0 
     /tmp/ccdOlijK.s:370    .text:0000000000000208 .L0 
     /tmp/ccdOlijK.s:372    .text:000000000000020c .L0 
     /tmp/ccdOlijK.s:375    .text:0000000000000210 .L0 
     /tmp/ccdOlijK.s:376    .text:0000000000000210 .L0 
     /tmp/ccdOlijK.s:377    .text:0000000000000210 .L0 
     /tmp/ccdOlijK.s:379    .text:0000000000000214 .L0 
     /tmp/ccdOlijK.s:382    .text:0000000000000218 .L0 
     /tmp/ccdOlijK.s:386    .text:000000000000021c .L0 
     /tmp/ccdOlijK.s:387    .text:000000000000021c .L0 
     /tmp/ccdOlijK.s:389    .text:0000000000000224 .L0 
     /tmp/ccdOlijK.s:392    .text:0000000000000228 .L0 
     /tmp/ccdOlijK.s:393    .text:0000000000000228 .L0 
     /tmp/ccdOlijK.s:395    .text:000000000000022c .L0 
     /tmp/ccdOlijK.s:396    .text:000000000000022c .L0 
     /tmp/ccdOlijK.s:398    .text:0000000000000230 .L0 
     /tmp/ccdOlijK.s:399    .text:0000000000000230 .L0 
     /tmp/ccdOlijK.s:402    .text:000000000000023c .L0 
     /tmp/ccdOlijK.s:404    .text:0000000000000240 .L0 
     /tmp/ccdOlijK.s:405    .text:0000000000000240 .L0 
     /tmp/ccdOlijK.s:408    .text:0000000000000244 .L0 
     /tmp/ccdOlijK.s:409    .text:0000000000000244 .L0 
     /tmp/ccdOlijK.s:410    .text:0000000000000248 .L0 
     /tmp/ccdOlijK.s:411    .text:0000000000000248 .L0 
     /tmp/ccdOlijK.s:412    .text:0000000000000248 .L0 
     /tmp/ccdOlijK.s:414    .text:000000000000024c .L0 
     /tmp/ccdOlijK.s:418    .text:0000000000000250 .L0 
     /tmp/ccdOlijK.s:420    .text:0000000000000250 .L0 
     /tmp/ccdOlijK.s:421    .text:0000000000000250 .L0 
     /tmp/ccdOlijK.s:423    .text:0000000000000254 .L0 
     /tmp/ccdOlijK.s:424    .text:0000000000000254 .L0 
     /tmp/ccdOlijK.s:426    .text:0000000000000258 .L0 
     /tmp/ccdOlijK.s:427    .text:0000000000000258 .L0 
     /tmp/ccdOlijK.s:429    .text:000000000000025c .L0 
     /tmp/ccdOlijK.s:430    .text:000000000000025c .L0 
     /tmp/ccdOlijK.s:432    .text:0000000000000260 .L0 
     /tmp/ccdOlijK.s:435    .text:0000000000000264 .L0 
     /tmp/ccdOlijK.s:436    .text:0000000000000264 .L0 
     /tmp/ccdOlijK.s:438    .text:0000000000000268 .L0 
     /tmp/ccdOlijK.s:439    .text:0000000000000268 .L0 
     /tmp/ccdOlijK.s:441    .text:000000000000026c .L0 
     /tmp/ccdOlijK.s:442    .text:000000000000026c .L0 
     /tmp/ccdOlijK.s:444    .text:0000000000000270 .L0 
GAS LISTING /tmp/ccdOlijK.s 			page 26


     /tmp/ccdOlijK.s:445    .text:0000000000000274 .L0 
     /tmp/ccdOlijK.s:451    .text:0000000000000274 _ZN15MemoryAllocator8allocateEm
     /tmp/ccdOlijK.s:454    .text:0000000000000274 .L0 
     /tmp/ccdOlijK.s:456    .text:0000000000000274 .L0 
     /tmp/ccdOlijK.s:457    .text:0000000000000278 .L0 
     /tmp/ccdOlijK.s:462    .text:0000000000000288 .L0 
     /tmp/ccdOlijK.s:463    .text:0000000000000288 .L0 
     /tmp/ccdOlijK.s:464    .text:0000000000000288 .L0 
     /tmp/ccdOlijK.s:465    .text:0000000000000288 .L0 
     /tmp/ccdOlijK.s:467    .text:000000000000028c .L0 
     /tmp/ccdOlijK.s:469    .text:000000000000028c .L0 
     /tmp/ccdOlijK.s:471    .text:0000000000000290 .L0 
     /tmp/ccdOlijK.s:472    .text:0000000000000290 .L0 
     /tmp/ccdOlijK.s:475    .text:0000000000000294 .L0 
     /tmp/ccdOlijK.s:476    .text:0000000000000294 .L0 
     /tmp/ccdOlijK.s:479    .text:0000000000000298 .L0 
     /tmp/ccdOlijK.s:481    .text:000000000000029c .L0 
     /tmp/ccdOlijK.s:482    .text:000000000000029c .L0 
     /tmp/ccdOlijK.s:486    .text:00000000000002a0 .L0 
     /tmp/ccdOlijK.s:487    .text:00000000000002a0 .L0 
     /tmp/ccdOlijK.s:490    .text:00000000000002a4 .L0 
     /tmp/ccdOlijK.s:491    .text:00000000000002a4 .L0 
     /tmp/ccdOlijK.s:498    .text:00000000000002b0 .L0 
     /tmp/ccdOlijK.s:499    .text:00000000000002b0 .L0 
     /tmp/ccdOlijK.s:503    .text:00000000000002bc .L0 
     /tmp/ccdOlijK.s:504    .text:00000000000002bc .L0 
     /tmp/ccdOlijK.s:508    .text:00000000000002c8 .L0 
     /tmp/ccdOlijK.s:509    .text:00000000000002c8 .L0 
     /tmp/ccdOlijK.s:515    .text:00000000000002cc .L0 
     /tmp/ccdOlijK.s:517    .text:00000000000002d4 .L0 
     /tmp/ccdOlijK.s:518    .text:00000000000002d4 .L0 
     /tmp/ccdOlijK.s:520    .text:00000000000002d8 .L0 
     /tmp/ccdOlijK.s:521    .text:00000000000002d8 .L0 
     /tmp/ccdOlijK.s:523    .text:00000000000002dc .L0 
     /tmp/ccdOlijK.s:525    .text:00000000000002e0 .L0 
     /tmp/ccdOlijK.s:527    .text:00000000000002e4 .L0 
     /tmp/ccdOlijK.s:531    .text:00000000000002e8 .L0 
     /tmp/ccdOlijK.s:534    .text:00000000000002e8 .L0 
     /tmp/ccdOlijK.s:535    .text:00000000000002e8 .L0 
     /tmp/ccdOlijK.s:540    .text:00000000000002ec .L0 
     /tmp/ccdOlijK.s:541    .text:00000000000002ec .L0 
     /tmp/ccdOlijK.s:545    .text:00000000000002f0 .L0 
     /tmp/ccdOlijK.s:546    .text:00000000000002f0 .L0 
     /tmp/ccdOlijK.s:548    .text:00000000000002f4 .L0 
     /tmp/ccdOlijK.s:555    .text:00000000000002f8 .L0 
     /tmp/ccdOlijK.s:558    .text:00000000000002fc .L0 
     /tmp/ccdOlijK.s:559    .text:00000000000002fc .L0 
     /tmp/ccdOlijK.s:563    .text:0000000000000308 .L0 
     /tmp/ccdOlijK.s:564    .text:0000000000000308 .L0 
     /tmp/ccdOlijK.s:566    .text:000000000000030c .L0 
     /tmp/ccdOlijK.s:569    .text:0000000000000310 .L0 
     /tmp/ccdOlijK.s:570    .text:0000000000000310 .L0 
     /tmp/ccdOlijK.s:572    .text:0000000000000314 .L0 
     /tmp/ccdOlijK.s:575    .text:000000000000031c .L0 
     /tmp/ccdOlijK.s:577    .text:0000000000000320 .L0 
     /tmp/ccdOlijK.s:578    .text:0000000000000320 .L0 
     /tmp/ccdOlijK.s:580    .text:0000000000000324 .L0 
GAS LISTING /tmp/ccdOlijK.s 			page 27


     /tmp/ccdOlijK.s:581    .text:0000000000000324 .L0 
     /tmp/ccdOlijK.s:583    .text:0000000000000328 .L0 
     /tmp/ccdOlijK.s:584    .text:0000000000000328 .L0 
     /tmp/ccdOlijK.s:587    .text:0000000000000330 .L0 
     /tmp/ccdOlijK.s:588    .text:0000000000000330 .L0 
     /tmp/ccdOlijK.s:590    .text:0000000000000334 .L0 
     /tmp/ccdOlijK.s:591    .text:0000000000000334 .L0 
     /tmp/ccdOlijK.s:595    .text:0000000000000340 .L0 
     /tmp/ccdOlijK.s:596    .text:0000000000000340 .L0 
     /tmp/ccdOlijK.s:606    .text:0000000000000348 .L0 
     /tmp/ccdOlijK.s:608    .text:0000000000000350 .L0 
     /tmp/ccdOlijK.s:614    .text:0000000000000350 _ZN15MemoryAllocator15discard_from_alEP11MemFragment
     /tmp/ccdOlijK.s:617    .text:0000000000000350 .L0 
     /tmp/ccdOlijK.s:619    .text:0000000000000350 .L0 
     /tmp/ccdOlijK.s:620    .text:0000000000000354 .L0 
     /tmp/ccdOlijK.s:622    .text:0000000000000358 .L0 
     /tmp/ccdOlijK.s:624    .text:000000000000035c .L0 
     /tmp/ccdOlijK.s:626    .text:000000000000035c .L0 
     /tmp/ccdOlijK.s:628    .text:0000000000000360 .L0 
     /tmp/ccdOlijK.s:630    .text:0000000000000368 .L0 
     /tmp/ccdOlijK.s:632    .text:000000000000036c .L0 
     /tmp/ccdOlijK.s:634    .text:0000000000000370 .L0 
     /tmp/ccdOlijK.s:635    .text:0000000000000370 .L0 
     /tmp/ccdOlijK.s:638    .text:0000000000000374 .L0 
     /tmp/ccdOlijK.s:639    .text:0000000000000374 .L0 
     /tmp/ccdOlijK.s:642    .text:0000000000000378 .L0 
     /tmp/ccdOlijK.s:643    .text:0000000000000378 .L0 
     /tmp/ccdOlijK.s:645    .text:000000000000037c .L0 
     /tmp/ccdOlijK.s:647    .text:0000000000000380 .L0 
     /tmp/ccdOlijK.s:648    .text:0000000000000380 .L0 
     /tmp/ccdOlijK.s:651    .text:0000000000000384 .L0 
     /tmp/ccdOlijK.s:652    .text:0000000000000384 .L0 
     /tmp/ccdOlijK.s:654    .text:0000000000000388 .L0 
     /tmp/ccdOlijK.s:655    .text:0000000000000388 .L0 
     /tmp/ccdOlijK.s:659    .text:000000000000038c .L0 
     /tmp/ccdOlijK.s:660    .text:000000000000038c .L0 
     /tmp/ccdOlijK.s:661    .text:0000000000000390 .L0 
     /tmp/ccdOlijK.s:662    .text:0000000000000390 .L0 
     /tmp/ccdOlijK.s:663    .text:0000000000000390 .L0 
     /tmp/ccdOlijK.s:665    .text:0000000000000394 .L0 
     /tmp/ccdOlijK.s:668    .text:0000000000000398 .L0 
     /tmp/ccdOlijK.s:670    .text:0000000000000398 .L0 
     /tmp/ccdOlijK.s:671    .text:0000000000000398 .L0 
     /tmp/ccdOlijK.s:673    .text:000000000000039c .L0 
     /tmp/ccdOlijK.s:675    .text:00000000000003a4 .L0 
     /tmp/ccdOlijK.s:677    .text:00000000000003a8 .L0 
     /tmp/ccdOlijK.s:678    .text:00000000000003a8 .L0 
     /tmp/ccdOlijK.s:681    .text:00000000000003ac .L0 
     /tmp/ccdOlijK.s:682    .text:00000000000003ac .L0 
     /tmp/ccdOlijK.s:684    .text:00000000000003b0 .L0 
     /tmp/ccdOlijK.s:685    .text:00000000000003b0 .L0 
     /tmp/ccdOlijK.s:687    .text:00000000000003b4 .L0 
     /tmp/ccdOlijK.s:688    .text:00000000000003b8 .L0 
     /tmp/ccdOlijK.s:694    .text:00000000000003b8 _ZN15MemoryAllocator11free_memoryEPv
     /tmp/ccdOlijK.s:697    .text:00000000000003b8 .L0 
     /tmp/ccdOlijK.s:699    .text:00000000000003b8 .L0 
     /tmp/ccdOlijK.s:700    .text:00000000000003b8 .L0 
GAS LISTING /tmp/ccdOlijK.s 			page 28


     /tmp/ccdOlijK.s:702    .text:00000000000003bc .L0 
     /tmp/ccdOlijK.s:703    .text:00000000000003c0 .L0 
     /tmp/ccdOlijK.s:707    .text:00000000000003cc .L0 
     /tmp/ccdOlijK.s:708    .text:00000000000003cc .L0 
     /tmp/ccdOlijK.s:709    .text:00000000000003cc .L0 
     /tmp/ccdOlijK.s:711    .text:00000000000003d0 .L0 
     /tmp/ccdOlijK.s:713    .text:00000000000003d0 .L0 
     /tmp/ccdOlijK.s:714    .text:00000000000003d0 .L0 
     /tmp/ccdOlijK.s:717    .text:00000000000003d4 .L0 
     /tmp/ccdOlijK.s:718    .text:00000000000003d4 .L0 
     /tmp/ccdOlijK.s:720    .text:00000000000003d8 .L0 
     /tmp/ccdOlijK.s:722    .text:00000000000003dc .L0 
     /tmp/ccdOlijK.s:723    .text:00000000000003dc .L0 
     /tmp/ccdOlijK.s:728    .text:00000000000003e8 .L0 
     /tmp/ccdOlijK.s:729    .text:00000000000003e8 .L0 
     /tmp/ccdOlijK.s:733    .text:00000000000003f4 .L0 
     /tmp/ccdOlijK.s:734    .text:00000000000003f4 .L0 
     /tmp/ccdOlijK.s:737    .text:00000000000003f8 .L0 
     /tmp/ccdOlijK.s:738    .text:00000000000003fc .L0 
     /tmp/ccdOlijK.s:740    .text:0000000000000400 .L0 
     /tmp/ccdOlijK.s:741    .text:0000000000000400 .L0 
     /tmp/ccdOlijK.s:743    .text:0000000000000404 .L0 
     /tmp/ccdOlijK.s:746    .text:0000000000000408 .L0 
     /tmp/ccdOlijK.s:751    .text:000000000000040c .L0 
     /tmp/ccdOlijK.s:754    .text:0000000000000410 .L0 
     /tmp/ccdOlijK.s:757    .text:0000000000000414 .L0 
     /tmp/ccdOlijK.s:758    .text:0000000000000414 .L0 
     /tmp/ccdOlijK.s:759    .text:0000000000000414 .L0 
     /tmp/ccdOlijK.s:760    .text:0000000000000414 .L0 
     /tmp/ccdOlijK.s:762    .text:0000000000000414 .L0 
     /tmp/ccdOlijK.s:765    .text:000000000000041c .L0 
     /tmp/ccdOlijK.s:779    .bss:0000000000000008 _ZN15MemoryAllocator14allocated_headE
     /tmp/ccdOlijK.s:775    .bss:0000000000000000 _ZN15MemoryAllocator13free_mem_headE
     /tmp/ccdOlijK.s:772    .bss:0000000000000000 .LANCHOR0
     /tmp/ccdOlijK.s:785    .text:000000000000041c .L0 
     /tmp/ccdOlijK.s:22     .text:000000000000000c .L0 
     /tmp/ccdOlijK.s:24     .text:0000000000000018 .L0 
     /tmp/ccdOlijK.s:40     .text:0000000000000038 .L0 
     /tmp/ccdOlijK.s:84     .text:000000000000007c .L0 
     /tmp/ccdOlijK.s:116    .text:00000000000000a4 .L0 
     /tmp/ccdOlijK.s:130    .text:00000000000000b8 .L0 
     /tmp/ccdOlijK.s:167    .text:00000000000000fc .L0 
     /tmp/ccdOlijK.s:273    .text:0000000000000188 .L0 
     /tmp/ccdOlijK.s:318    .text:00000000000001c4 .L0 
     /tmp/ccdOlijK.s:357    .text:00000000000001f4 .L0 
     /tmp/ccdOlijK.s:387    .text:000000000000021c .L0 
     /tmp/ccdOlijK.s:399    .text:0000000000000230 .L0 
     /tmp/ccdOlijK.s:491    .text:00000000000002a4 .L0 
     /tmp/ccdOlijK.s:628    .text:0000000000000360 .L0 
     /tmp/ccdOlijK.s:673    .text:000000000000039c .L0 
     /tmp/ccdOlijK.s:245    .text:000000000000016c .L3
     /tmp/ccdOlijK.s:113    .text:00000000000000a4 .L15
     /tmp/ccdOlijK.s:119    .text:00000000000000b0 .L16
     /tmp/ccdOlijK.s:233    .text:0000000000000160 .L9
     /tmp/ccdOlijK.s:179    .text:0000000000000114 .L17
     /tmp/ccdOlijK.s:96     .text:0000000000000090 .L13
     /tmp/ccdOlijK.s:169    .text:0000000000000108 .L8
GAS LISTING /tmp/ccdOlijK.s 			page 29


     /tmp/ccdOlijK.s:223    .text:0000000000000154 .L12
     /tmp/ccdOlijK.s:303    .text:00000000000001b4 .L18
     /tmp/ccdOlijK.s:312    .text:00000000000001c0 .L24
     /tmp/ccdOlijK.s:294    .text:00000000000001ac .L22
     /tmp/ccdOlijK.s:324    .text:00000000000001d4 .L21
     /tmp/ccdOlijK.s:407    .text:0000000000000244 .L25
     /tmp/ccdOlijK.s:384    .text:000000000000021c .L33
     /tmp/ccdOlijK.s:390    .text:0000000000000228 .L34
     /tmp/ccdOlijK.s:433    .text:0000000000000264 .L29
     /tmp/ccdOlijK.s:417    .text:0000000000000250 .L35
     /tmp/ccdOlijK.s:367    .text:0000000000000208 .L31
     /tmp/ccdOlijK.s:600    .text:0000000000000348 .L42
     /tmp/ccdOlijK.s:484    .text:00000000000002a0 .L38
     /tmp/ccdOlijK.s:537    .text:00000000000002ec .L41
     /tmp/ccdOlijK.s:511    .text:00000000000002cc .L36
     /tmp/ccdOlijK.s:494    .text:00000000000002b0 .L44
     /tmp/ccdOlijK.s:530    .text:00000000000002e8 .L40
     /tmp/ccdOlijK.s:658    .text:000000000000038c .L45
     /tmp/ccdOlijK.s:667    .text:0000000000000398 .L51
     /tmp/ccdOlijK.s:649    .text:0000000000000384 .L49
     /tmp/ccdOlijK.s:679    .text:00000000000003ac .L48
     /tmp/ccdOlijK.s:749    .text:000000000000040c .L54
     /tmp/ccdOlijK.s:756    .text:0000000000000414 .L55
     /tmp/ccdOlijK.s:735    .text:00000000000003f8 .L53
     /tmp/ccdOlijK.s:1382   .debug_abbrev:0000000000000000 .Ldebug_abbrev0
     /tmp/ccdOlijK.s:2219   .debug_str:00000000000001d7 .LASF43
     /tmp/ccdOlijK.s:2241   .debug_str:0000000000000343 .LASF44
     /tmp/ccdOlijK.s:2223   .debug_str:00000000000002a0 .LASF45
     /tmp/ccdOlijK.s:5      .text:0000000000000000 .Ltext0
     /tmp/ccdOlijK.s:782    .text:000000000000041c .Letext0
     /tmp/ccdOlijK.s:2165   .debug_line:0000000000000000 .Ldebug_line0
     /tmp/ccdOlijK.s:2229   .debug_str:00000000000002dd .LASF0
     /tmp/ccdOlijK.s:2209   .debug_str:0000000000000198 .LASF1
     /tmp/ccdOlijK.s:2203   .debug_str:0000000000000152 .LASF2
     /tmp/ccdOlijK.s:2187   .debug_str:00000000000000c4 .LASF4
     /tmp/ccdOlijK.s:2207   .debug_str:0000000000000186 .LASF3
     /tmp/ccdOlijK.s:2173   .debug_str:000000000000002d .LASF5
     /tmp/ccdOlijK.s:2167   .debug_str:0000000000000000 .LASF6
     /tmp/ccdOlijK.s:2197   .debug_str:00000000000000fb .LASF7
     /tmp/ccdOlijK.s:2237   .debug_str:000000000000031d .LASF8
     /tmp/ccdOlijK.s:2185   .debug_str:00000000000000b6 .LASF9
     /tmp/ccdOlijK.s:2267   .debug_str:0000000000000448 .LASF10
     /tmp/ccdOlijK.s:2199   .debug_str:000000000000010e .LASF11
     /tmp/ccdOlijK.s:2255   .debug_str:00000000000003db .LASF12
     /tmp/ccdOlijK.s:2243   .debug_str:000000000000035b .LASF13
     /tmp/ccdOlijK.s:2211   .debug_str:00000000000001ab .LASF14
     /tmp/ccdOlijK.s:2191   .debug_str:00000000000000d0 .LASF15
     /tmp/ccdOlijK.s:2239   .debug_str:000000000000032d .LASF16
     /tmp/ccdOlijK.s:2213   .debug_str:00000000000001b7 .LASF22
     /tmp/ccdOlijK.s:2175   .debug_str:0000000000000034 .LASF17
     /tmp/ccdOlijK.s:2263   .debug_str:000000000000040e .LASF18
     /tmp/ccdOlijK.s:2261   .debug_str:0000000000000409 .LASF19
     /tmp/ccdOlijK.s:2245   .debug_str:000000000000036b .LASF20
     /tmp/ccdOlijK.s:2189   .debug_str:00000000000000cb .LASF21
     /tmp/ccdOlijK.s:2171   .debug_str:000000000000001d .LASF46
     /tmp/ccdOlijK.s:2257   .debug_str:00000000000003eb .LASF23
     /tmp/ccdOlijK.s:2227   .debug_str:00000000000002ce .LASF24
GAS LISTING /tmp/ccdOlijK.s 			page 30


     /tmp/ccdOlijK.s:2231   .debug_str:00000000000002ea .LASF47
     /tmp/ccdOlijK.s:2233   .debug_str:00000000000002f5 .LASF48
     /tmp/ccdOlijK.s:2225   .debug_str:00000000000002c5 .LASF25
     /tmp/ccdOlijK.s:2183   .debug_str:0000000000000096 .LASF27
     /tmp/ccdOlijK.s:2195   .debug_str:00000000000000ef .LASF26
     /tmp/ccdOlijK.s:2181   .debug_str:0000000000000071 .LASF28
     /tmp/ccdOlijK.s:2169   .debug_str:0000000000000013 .LASF29
     /tmp/ccdOlijK.s:2177   .debug_str:0000000000000039 .LASF31
     /tmp/ccdOlijK.s:2259   .debug_str:00000000000003f9 .LASF30
     /tmp/ccdOlijK.s:2201   .debug_str:000000000000011d .LASF32
     /tmp/ccdOlijK.s:2179   .debug_str:0000000000000067 .LASF33
     /tmp/ccdOlijK.s:2247   .debug_str:0000000000000370 .LASF34
     /tmp/ccdOlijK.s:2249   .debug_str:000000000000039e .LASF49
     /tmp/ccdOlijK.s:2265   .debug_str:0000000000000413 .LASF50
     /tmp/ccdOlijK.s:2253   .debug_str:00000000000003b6 .LASF35
     /tmp/ccdOlijK.s:2205   .debug_str:0000000000000160 .LASF36
     /tmp/ccdOlijK.s:615    .text:0000000000000350 .LFB6
     /tmp/ccdOlijK.s:689    .text:00000000000003b8 .LFE6
     /tmp/ccdOlijK.s:2193   .debug_str:00000000000000e6 .LASF39
     /tmp/ccdOlijK.s:2221   .debug_str:000000000000029b .LASF37
     /tmp/ccdOlijK.s:1895   .debug_loc:0000000000000000 .LLST11
     /tmp/ccdOlijK.s:2217   .debug_str:00000000000001d1 .LASF38
     /tmp/ccdOlijK.s:1902   .debug_loc:0000000000000023 .LLST12
     /tmp/ccdOlijK.s:340    .text:00000000000001e0 .LFB5
     /tmp/ccdOlijK.s:446    .text:0000000000000274 .LFE5
     /tmp/ccdOlijK.s:2235   .debug_str:0000000000000318 .LASF40
     /tmp/ccdOlijK.s:1909   .debug_loc:0000000000000046 .LLST5
     /tmp/ccdOlijK.s:1929   .debug_loc:00000000000000a3 .LLST6
     /tmp/ccdOlijK.s:260    .text:0000000000000178 .LFB4
     /tmp/ccdOlijK.s:334    .text:00000000000001e0 .LFE4
     /tmp/ccdOlijK.s:1948   .debug_loc:00000000000000ff .LLST3
     /tmp/ccdOlijK.s:1955   .debug_loc:0000000000000122 .LLST4
     /tmp/ccdOlijK.s:66     .text:0000000000000064 .LFB3
     /tmp/ccdOlijK.s:254    .text:0000000000000178 .LFE3
     /tmp/ccdOlijK.s:1962   .debug_loc:0000000000000145 .LLST0
     /tmp/ccdOlijK.s:1982   .debug_loc:00000000000001a2 .LLST1
     /tmp/ccdOlijK.s:121    .text:00000000000000b0 .LBB3
     /tmp/ccdOlijK.s:180    .text:0000000000000114 .LBE3
     /tmp/ccdOlijK.s:2010   .debug_loc:0000000000000225 .LLST2
     /tmp/ccdOlijK.s:695    .text:00000000000003b8 .LFB2
     /tmp/ccdOlijK.s:766    .text:000000000000041c .LFE2
     /tmp/ccdOlijK.s:2017   .debug_loc:0000000000000248 .LLST13
     /tmp/ccdOlijK.s:2058   .debug_loc:00000000000002e9 .LLST14
     /tmp/ccdOlijK.s:726    .text:00000000000003e8 .LVL45
     /tmp/ccdOlijK.s:731    .text:00000000000003f4 .LVL46
     /tmp/ccdOlijK.s:452    .text:0000000000000274 .LFB1
     /tmp/ccdOlijK.s:609    .text:0000000000000350 .LFE1
     /tmp/ccdOlijK.s:2079   .debug_loc:0000000000000338 .LLST7
     /tmp/ccdOlijK.s:2251   .debug_str:00000000000003ae .LASF41
     /tmp/ccdOlijK.s:2097   .debug_loc:0000000000000384 .LLST8
     /tmp/ccdOlijK.s:2108   .debug_loc:00000000000003ba .LLST9
     /tmp/ccdOlijK.s:556    .text:00000000000002fc .LBB8
     /tmp/ccdOlijK.s:601    .text:0000000000000348 .LBE8
     /tmp/ccdOlijK.s:2215   .debug_str:00000000000001c3 .LASF42
     /tmp/ccdOlijK.s:2125   .debug_loc:0000000000000405 .LLST10
     /tmp/ccdOlijK.s:561    .text:0000000000000308 .LVL32
     /tmp/ccdOlijK.s:585    .text:0000000000000330 .LVL34
GAS LISTING /tmp/ccdOlijK.s 			page 31


     /tmp/ccdOlijK.s:593    .text:0000000000000340 .LVL35
     /tmp/ccdOlijK.s:501    .text:00000000000002bc .LVL27
     /tmp/ccdOlijK.s:506    .text:00000000000002c8 .LVL28
     /tmp/ccdOlijK.s:10     .text:0000000000000000 .LFB0
     /tmp/ccdOlijK.s:60     .text:0000000000000064 .LFE0
     /tmp/ccdOlijK.s:636    .text:0000000000000374 .LVL39
     /tmp/ccdOlijK.s:657    .text:000000000000038c .LVL41
     /tmp/ccdOlijK.s:640    .text:0000000000000378 .LVL40
     /tmp/ccdOlijK.s:365    .text:0000000000000208 .LVL16
     /tmp/ccdOlijK.s:374    .text:0000000000000210 .LVL17
     /tmp/ccdOlijK.s:380    .text:0000000000000218 .LVL18
     /tmp/ccdOlijK.s:383    .text:000000000000021c .LVL19
     /tmp/ccdOlijK.s:416    .text:0000000000000250 .LVL20
     /tmp/ccdOlijK.s:281    .text:000000000000019c .LVL12
     /tmp/ccdOlijK.s:302    .text:00000000000001b4 .LVL14
     /tmp/ccdOlijK.s:285    .text:00000000000001a0 .LVL13
     /tmp/ccdOlijK.s:94     .text:0000000000000090 .LVL1
     /tmp/ccdOlijK.s:103    .text:0000000000000098 .LVL2
     /tmp/ccdOlijK.s:109    .text:00000000000000a0 .LVL3
     /tmp/ccdOlijK.s:112    .text:00000000000000a4 .LVL4
     /tmp/ccdOlijK.s:178    .text:0000000000000114 .LVL6
     /tmp/ccdOlijK.s:244    .text:000000000000016c .LVL10
     /tmp/ccdOlijK.s:197    .text:0000000000000128 .LVL7
     /tmp/ccdOlijK.s:222    .text:0000000000000154 .LVL8
     /tmp/ccdOlijK.s:232    .text:0000000000000160 .LVL9
     /tmp/ccdOlijK.s:140    .text:00000000000000d0 .LVL5
     /tmp/ccdOlijK.s:698    .text:00000000000003b8 .LVL42
     /tmp/ccdOlijK.s:724    .text:00000000000003e0 .LVL44
     /tmp/ccdOlijK.s:744    .text:0000000000000404 .LVL47
     /tmp/ccdOlijK.s:748    .text:000000000000040c .LVL48
     /tmp/ccdOlijK.s:752    .text:0000000000000410 .LVL49
     /tmp/ccdOlijK.s:755    .text:0000000000000414 .LVL50
     /tmp/ccdOlijK.s:763    .text:0000000000000418 .LVL51
     /tmp/ccdOlijK.s:715    .text:00000000000003d4 .LVL43
     /tmp/ccdOlijK.s:455    .text:0000000000000274 .LVL21
     /tmp/ccdOlijK.s:477    .text:0000000000000298 .LVL23
     /tmp/ccdOlijK.s:599    .text:0000000000000348 .LVL37
     /tmp/ccdOlijK.s:473    .text:0000000000000294 .LVL22
     /tmp/ccdOlijK.s:510    .text:00000000000002cc .LVL29
     /tmp/ccdOlijK.s:529    .text:00000000000002e8 .LVL30
     /tmp/ccdOlijK.s:492    .text:00000000000002ac .LVL26
     /tmp/ccdOlijK.s:597    .text:0000000000000344 .LVL36
     /tmp/ccdOlijK.s:567    .text:0000000000000310 .LVL33
     /tmp/ccdOlijK.s:786    .debug_info:0000000000000000 .Ldebug_info0

UNDEFINED SYMBOLS
HEAP_START_ADDR
HEAP_END_ADDR
