GAS LISTING /tmp/ccCiRfrp.s 			page 1


   1              		.file	"PeriodicThread.cpp"
   2              		.option pic
   3              		.option norelax
   4              		.text
   5              	.Ltext0:
   6              		.section	.text._ZN6Thread3runEv,"axG",@progbits,_ZN6Thread3runEv,comdat
   7              		.align	2
   8              		.weak	_ZN6Thread3runEv
  10              	_ZN6Thread3runEv:
  11              	.LFB31:
  12              		.file 1 "src/../h/syscall_cpp.hpp"
   1:src/../h/syscall_cpp.hpp **** //
   2:src/../h/syscall_cpp.hpp **** // Created by DjordjeS on 31.7.2022.
   3:src/../h/syscall_cpp.hpp **** //
   4:src/../h/syscall_cpp.hpp **** 
   5:src/../h/syscall_cpp.hpp **** #ifndef _syscall_cpp
   6:src/../h/syscall_cpp.hpp **** #define _syscall_cpp
   7:src/../h/syscall_cpp.hpp **** 
   8:src/../h/syscall_cpp.hpp **** #include "syscall_c.h"
   9:src/../h/syscall_cpp.hpp **** 
  10:src/../h/syscall_cpp.hpp **** void* operator new (size_t);
  11:src/../h/syscall_cpp.hpp **** void operator delete (void*);
  12:src/../h/syscall_cpp.hpp **** 
  13:src/../h/syscall_cpp.hpp **** class Thread {
  14:src/../h/syscall_cpp.hpp **** public:
  15:src/../h/syscall_cpp.hpp ****     Thread (void (*body)(void*), void* arg);
  16:src/../h/syscall_cpp.hpp ****     virtual ~Thread ();
  17:src/../h/syscall_cpp.hpp ****     int start ();
  18:src/../h/syscall_cpp.hpp ****     static void dispatch ();
  19:src/../h/syscall_cpp.hpp ****     static int sleep (time_t);
  20:src/../h/syscall_cpp.hpp ****     static void threadWrapper(void*);
  21:src/../h/syscall_cpp.hpp **** 
  22:src/../h/syscall_cpp.hpp **** protected:
  23:src/../h/syscall_cpp.hpp ****     Thread ();
  24:src/../h/syscall_cpp.hpp ****     virtual void run () {}
  13              		.loc 1 24 18
  14              		.cfi_startproc
  15              	.LVL0:
  16 0000 130101FF 		addi	sp,sp,-16
  17              		.cfi_def_cfa_offset 16
  18 0004 23348100 		sd	s0,8(sp)
  19              		.cfi_offset 8, -8
  20 0008 13040101 		addi	s0,sp,16
  21              		.cfi_def_cfa 8, 0
  22              		.loc 1 24 26 is_stmt 0
  23 000c 03348100 		ld	s0,8(sp)
  24              		.cfi_restore 8
  25              		.cfi_def_cfa 2, 16
  26 0010 13010101 		addi	sp,sp,16
  27              		.cfi_def_cfa_offset 0
  28 0014 67800000 		jr	ra
  29              		.cfi_endproc
  30              	.LFE31:
  32              		.section	.text._ZN14PeriodicThread18periodicActivationEv,"axG",@progbits,_ZN14PeriodicThread18peri
  33              		.align	2
  34              		.weak	_ZN14PeriodicThread18periodicActivationEv
  36              	_ZN14PeriodicThread18periodicActivationEv:
GAS LISTING /tmp/ccCiRfrp.s 			page 2


  37              	.LFB32:
  25:src/../h/syscall_cpp.hpp **** 
  26:src/../h/syscall_cpp.hpp **** private:
  27:src/../h/syscall_cpp.hpp ****     thread_t myHandle;
  28:src/../h/syscall_cpp.hpp **** };
  29:src/../h/syscall_cpp.hpp **** 
  30:src/../h/syscall_cpp.hpp **** class Semaphore {
  31:src/../h/syscall_cpp.hpp **** public:
  32:src/../h/syscall_cpp.hpp ****     Semaphore (unsigned init = 1);
  33:src/../h/syscall_cpp.hpp ****     virtual ~Semaphore ();
  34:src/../h/syscall_cpp.hpp ****     int wait ();
  35:src/../h/syscall_cpp.hpp ****     int signal ();
  36:src/../h/syscall_cpp.hpp **** 
  37:src/../h/syscall_cpp.hpp **** private:
  38:src/../h/syscall_cpp.hpp ****     sem_t myHandle;
  39:src/../h/syscall_cpp.hpp **** };
  40:src/../h/syscall_cpp.hpp **** 
  41:src/../h/syscall_cpp.hpp **** class PeriodicThread : public Thread {
  42:src/../h/syscall_cpp.hpp **** protected:
  43:src/../h/syscall_cpp.hpp ****     PeriodicThread (time_t period);
  44:src/../h/syscall_cpp.hpp ****     virtual void periodicActivation () {}
  38              		.loc 1 44 18 is_stmt 1
  39              		.cfi_startproc
  40              	.LVL1:
  41 0000 130101FF 		addi	sp,sp,-16
  42              		.cfi_def_cfa_offset 16
  43 0004 23348100 		sd	s0,8(sp)
  44              		.cfi_offset 8, -8
  45 0008 13040101 		addi	s0,sp,16
  46              		.cfi_def_cfa 8, 0
  47              		.loc 1 44 41 is_stmt 0
  48 000c 03348100 		ld	s0,8(sp)
  49              		.cfi_restore 8
  50              		.cfi_def_cfa 2, 16
  51 0010 13010101 		addi	sp,sp,16
  52              		.cfi_def_cfa_offset 0
  53 0014 67800000 		jr	ra
  54              		.cfi_endproc
  55              	.LFE32:
  57              		.text
  58              		.align	2
  59              		.globl	_ZN14PeriodicThread15periodicWrapperEPv
  61              	_ZN14PeriodicThread15periodicWrapperEPv:
  62              	.LFB33:
  63              		.file 2 "src/PeriodicThread.cpp"
   1:src/PeriodicThread.cpp **** //
   2:src/PeriodicThread.cpp **** // Created by DjordjeS on 1.8.2022.
   3:src/PeriodicThread.cpp **** //
   4:src/PeriodicThread.cpp **** 
   5:src/PeriodicThread.cpp **** #include "../h/syscall_cpp.hpp"
   6:src/PeriodicThread.cpp **** 
   7:src/PeriodicThread.cpp **** struct p_struct{
   8:src/PeriodicThread.cpp ****     time_t time;
   9:src/PeriodicThread.cpp ****     PeriodicThread *p_thr;
  10:src/PeriodicThread.cpp **** };
  11:src/PeriodicThread.cpp **** 
  12:src/PeriodicThread.cpp **** void PeriodicThread::periodicWrapper(void* par){
GAS LISTING /tmp/ccCiRfrp.s 			page 3


  64              		.loc 2 12 48 is_stmt 1
  65              		.cfi_startproc
  66              	.LVL2:
  67 0000 130101FE 		addi	sp,sp,-32
  68              		.cfi_def_cfa_offset 32
  69 0004 233C1100 		sd	ra,24(sp)
  70 0008 23388100 		sd	s0,16(sp)
  71 000c 23349100 		sd	s1,8(sp)
  72              		.cfi_offset 1, -8
  73              		.cfi_offset 8, -16
  74              		.cfi_offset 9, -24
  75 0010 13040102 		addi	s0,sp,32
  76              		.cfi_def_cfa 8, 0
  77 0014 93040500 		mv	s1,a0
  13:src/PeriodicThread.cpp ****     p_struct *my_ps = (p_struct*)par;
  78              		.loc 2 13 5
  79              	.LVL3:
  80              	.L6:
  14:src/PeriodicThread.cpp ****     while (1){
  81              		.loc 2 14 5 discriminator 1
  15:src/PeriodicThread.cpp ****         time_sleep(my_ps->time);
  82              		.loc 2 15 9 discriminator 1
  83              		.loc 2 15 19 is_stmt 0 discriminator 1
  84 0018 03B50400 		ld	a0,0(s1)
  85 001c 97000000 		call	_Z10time_sleepm@plt
  85      E7800000 
  86              	.LVL4:
  16:src/PeriodicThread.cpp ****         my_ps->p_thr->periodicActivation();
  87              		.loc 2 16 9 is_stmt 1 discriminator 1
  88              		.loc 2 16 16 is_stmt 0 discriminator 1
  89 0024 03B58400 		ld	a0,8(s1)
  90              		.loc 2 16 42 discriminator 1
  91 0028 83370500 		ld	a5,0(a0)
  92 002c 83B78701 		ld	a5,24(a5)
  93              		.loc 2 16 41 discriminator 1
  94 0030 E7800700 		jalr	a5
  95              	.LVL5:
  14:src/PeriodicThread.cpp ****     while (1){
  96              		.loc 2 14 5 is_stmt 1 discriminator 1
  97 0034 6FF05FFE 		j	.L6
  98              		.cfi_endproc
  99              	.LFE33:
 101              		.section	.text._ZN14PeriodicThreadD2Ev,"axG",@progbits,_ZN14PeriodicThreadD5Ev,comdat
 102              		.align	2
 103              		.weak	_ZN14PeriodicThreadD2Ev
 105              	_ZN14PeriodicThreadD2Ev:
 106              	.LFB44:
  41:src/../h/syscall_cpp.hpp **** protected:
 107              		.loc 1 41 7
 108              		.cfi_startproc
 109              	.LVL6:
 110 0000 130101FF 		addi	sp,sp,-16
 111              		.cfi_def_cfa_offset 16
 112 0004 23341100 		sd	ra,8(sp)
 113 0008 23308100 		sd	s0,0(sp)
 114              		.cfi_offset 1, -8
 115              		.cfi_offset 8, -16
GAS LISTING /tmp/ccCiRfrp.s 			page 4


 116 000c 13040101 		addi	s0,sp,16
 117              		.cfi_def_cfa 8, 0
 118              	.LBB5:
  41:src/../h/syscall_cpp.hpp **** protected:
 119              		.loc 1 41 7 is_stmt 0
 120 0010 97070000 		lla	a5,_ZTV14PeriodicThread+16
 120      93870700 
 121 0018 2330F500 		sd	a5,0(a0)
 122 001c 97000000 		call	_ZN6ThreadD2Ev@plt
 122      E7800000 
 123              	.LVL7:
 124              	.LBE5:
 125 0024 83308100 		ld	ra,8(sp)
 126              		.cfi_restore 1
 127 0028 03340100 		ld	s0,0(sp)
 128              		.cfi_restore 8
 129              		.cfi_def_cfa 2, 16
 130 002c 13010101 		addi	sp,sp,16
 131              		.cfi_def_cfa_offset 0
 132 0030 67800000 		jr	ra
 133              		.cfi_endproc
 134              	.LFE44:
 136              		.weak	_ZN14PeriodicThreadD1Ev
 137              		.set	_ZN14PeriodicThreadD1Ev,_ZN14PeriodicThreadD2Ev
 138              		.section	.text._ZN14PeriodicThreadD0Ev,"axG",@progbits,_ZN14PeriodicThreadD5Ev,comdat
 139              		.align	2
 140              		.weak	_ZN14PeriodicThreadD0Ev
 142              	_ZN14PeriodicThreadD0Ev:
 143              	.LFB46:
  41:src/../h/syscall_cpp.hpp **** protected:
 144              		.loc 1 41 7 is_stmt 1
 145              		.cfi_startproc
 146              	.LVL8:
 147 0000 130101FE 		addi	sp,sp,-32
 148              		.cfi_def_cfa_offset 32
 149 0004 233C1100 		sd	ra,24(sp)
 150 0008 23388100 		sd	s0,16(sp)
 151 000c 23349100 		sd	s1,8(sp)
 152              		.cfi_offset 1, -8
 153              		.cfi_offset 8, -16
 154              		.cfi_offset 9, -24
 155 0010 13040102 		addi	s0,sp,32
 156              		.cfi_def_cfa 8, 0
 157 0014 93040500 		mv	s1,a0
 158              	.LVL9:
 159              	.LBB6:
 160              	.LBB7:
  41:src/../h/syscall_cpp.hpp **** protected:
 161              		.loc 1 41 7 is_stmt 0
 162 0018 97070000 		lla	a5,_ZTV14PeriodicThread+16
 162      93870700 
 163 0020 2330F500 		sd	a5,0(a0)
 164 0024 97000000 		call	_ZN6ThreadD2Ev@plt
 164      E7800000 
 165              	.LVL10:
 166              	.LBE7:
 167              	.LBE6:
GAS LISTING /tmp/ccCiRfrp.s 			page 5


 168 002c 13850400 		mv	a0,s1
 169 0030 97000000 		call	_ZdlPv@plt
 169      E7800000 
 170              	.LVL11:
 171 0038 83308101 		ld	ra,24(sp)
 172              		.cfi_restore 1
 173 003c 03340101 		ld	s0,16(sp)
 174              		.cfi_restore 8
 175              		.cfi_def_cfa 2, 32
 176 0040 83348100 		ld	s1,8(sp)
 177              		.cfi_restore 9
 178              	.LVL12:
 179 0044 13010102 		addi	sp,sp,32
 180              		.cfi_def_cfa_offset 0
 181 0048 67800000 		jr	ra
 182              		.cfi_endproc
 183              	.LFE46:
 185              		.text
 186              		.align	2
 187              		.globl	_ZN14PeriodicThreadC2Em
 189              	_ZN14PeriodicThreadC2Em:
 190              	.LFB35:
  17:src/PeriodicThread.cpp ****     }
  18:src/PeriodicThread.cpp **** }
  19:src/PeriodicThread.cpp **** 
  20:src/PeriodicThread.cpp **** PeriodicThread::PeriodicThread(time_t period) :
 191              		.loc 2 20 1 is_stmt 1
 192              		.cfi_startproc
 193              	.LVL13:
 194 0038 130101FE 		addi	sp,sp,-32
 195              		.cfi_def_cfa_offset 32
 196 003c 233C1100 		sd	ra,24(sp)
 197 0040 23388100 		sd	s0,16(sp)
 198 0044 23349100 		sd	s1,8(sp)
 199 0048 23302101 		sd	s2,0(sp)
 200              		.cfi_offset 1, -8
 201              		.cfi_offset 8, -16
 202              		.cfi_offset 9, -24
 203              		.cfi_offset 18, -32
 204 004c 13040102 		addi	s0,sp,32
 205              		.cfi_def_cfa 8, 0
 206 0050 93040500 		mv	s1,a0
 207 0054 13890500 		mv	s2,a1
 208              	.LBB8:
  21:src/PeriodicThread.cpp ****     Thread(PeriodicThread::periodicWrapper, (void*)(new (p_struct){period, this}))
 209              		.loc 2 21 80 is_stmt 0
 210 0058 13050001 		li	a0,16
 211              	.LVL14:
 212 005c 97000000 		call	_Znwm@plt
 212      E7800000 
 213              	.LVL15:
 214 0064 13060500 		mv	a2,a0
 215 0068 23302501 		sd	s2,0(a0)
 216 006c 23349500 		sd	s1,8(a0)
 217              		.loc 2 21 82
 218 0070 97050000 		lla	a1,_ZN14PeriodicThread15periodicWrapperEPv
 218      93850500 
GAS LISTING /tmp/ccCiRfrp.s 			page 6


 219 0078 13850400 		mv	a0,s1
 220 007c 97000000 		call	_ZN6ThreadC2EPFvPvES0_@plt
 220      E7800000 
 221              	.LVL16:
 222 0084 97070000 		lla	a5,_ZTV14PeriodicThread+16
 222      93870700 
 223 008c 23B0F400 		sd	a5,0(s1)
 224              	.LBE8:
  22:src/PeriodicThread.cpp **** { }...
 225              		.loc 2 22 3
 226 0090 83308101 		ld	ra,24(sp)
 227              		.cfi_restore 1
 228 0094 03340101 		ld	s0,16(sp)
 229              		.cfi_restore 8
 230              		.cfi_def_cfa 2, 32
 231 0098 83348100 		ld	s1,8(sp)
 232              		.cfi_restore 9
 233              	.LVL17:
 234 009c 03390100 		ld	s2,0(sp)
 235              		.cfi_restore 18
 236              	.LVL18:
 237 00a0 13010102 		addi	sp,sp,32
 238              		.cfi_def_cfa_offset 0
 239 00a4 67800000 		jr	ra
 240              		.cfi_endproc
 241              	.LFE35:
 243              		.globl	_ZN14PeriodicThreadC1Em
 244              		.set	_ZN14PeriodicThreadC1Em,_ZN14PeriodicThreadC2Em
 245              		.weak	_ZTV14PeriodicThread
 246              		.section	.data.rel.ro.local._ZTV14PeriodicThread,"awG",@progbits,_ZTV14PeriodicThread,comdat
 247              		.align	3
 250              	_ZTV14PeriodicThread:
 251 0000 00000000 		.dword	0
 251      00000000 
 252 0008 00000000 		.dword	0
 252      00000000 
 253 0010 00000000 		.dword	_ZN14PeriodicThreadD1Ev
 253      00000000 
 254 0018 00000000 		.dword	_ZN14PeriodicThreadD0Ev
 254      00000000 
 255 0020 00000000 		.dword	_ZN6Thread3runEv
 255      00000000 
 256 0028 00000000 		.dword	_ZN14PeriodicThread18periodicActivationEv
 256      00000000 
 257              		.text
 258              	.Letext0:
 259              		.file 3 "src/../h/../lib/hw.h"
 260              		.file 4 "src/../h/syscall_c.h"
GAS LISTING /tmp/ccCiRfrp.s 			page 7


DEFINED SYMBOLS
                            *ABS*:0000000000000000 PeriodicThread.cpp
     /tmp/ccCiRfrp.s:10     .text._ZN6Thread3runEv:0000000000000000 _ZN6Thread3runEv
     /tmp/ccCiRfrp.s:14     .text._ZN6Thread3runEv:0000000000000000 .L0 
     /tmp/ccCiRfrp.s:16     .text._ZN6Thread3runEv:0000000000000000 .L0 
     /tmp/ccCiRfrp.s:17     .text._ZN6Thread3runEv:0000000000000004 .L0 
     /tmp/ccCiRfrp.s:19     .text._ZN6Thread3runEv:0000000000000008 .L0 
     /tmp/ccCiRfrp.s:21     .text._ZN6Thread3runEv:000000000000000c .L0 
     /tmp/ccCiRfrp.s:23     .text._ZN6Thread3runEv:000000000000000c .L0 
     /tmp/ccCiRfrp.s:24     .text._ZN6Thread3runEv:0000000000000010 .L0 
     /tmp/ccCiRfrp.s:25     .text._ZN6Thread3runEv:0000000000000010 .L0 
     /tmp/ccCiRfrp.s:27     .text._ZN6Thread3runEv:0000000000000014 .L0 
     /tmp/ccCiRfrp.s:29     .text._ZN6Thread3runEv:0000000000000018 .L0 
     /tmp/ccCiRfrp.s:36     .text._ZN14PeriodicThread18periodicActivationEv:0000000000000000 _ZN14PeriodicThread18periodicActivationEv
     /tmp/ccCiRfrp.s:39     .text._ZN14PeriodicThread18periodicActivationEv:0000000000000000 .L0 
     /tmp/ccCiRfrp.s:41     .text._ZN14PeriodicThread18periodicActivationEv:0000000000000000 .L0 
     /tmp/ccCiRfrp.s:42     .text._ZN14PeriodicThread18periodicActivationEv:0000000000000004 .L0 
     /tmp/ccCiRfrp.s:44     .text._ZN14PeriodicThread18periodicActivationEv:0000000000000008 .L0 
     /tmp/ccCiRfrp.s:46     .text._ZN14PeriodicThread18periodicActivationEv:000000000000000c .L0 
     /tmp/ccCiRfrp.s:48     .text._ZN14PeriodicThread18periodicActivationEv:000000000000000c .L0 
     /tmp/ccCiRfrp.s:49     .text._ZN14PeriodicThread18periodicActivationEv:0000000000000010 .L0 
     /tmp/ccCiRfrp.s:50     .text._ZN14PeriodicThread18periodicActivationEv:0000000000000010 .L0 
     /tmp/ccCiRfrp.s:52     .text._ZN14PeriodicThread18periodicActivationEv:0000000000000014 .L0 
     /tmp/ccCiRfrp.s:54     .text._ZN14PeriodicThread18periodicActivationEv:0000000000000018 .L0 
     /tmp/ccCiRfrp.s:61     .text:0000000000000000 _ZN14PeriodicThread15periodicWrapperEPv
     /tmp/ccCiRfrp.s:65     .text:0000000000000000 .L0 
     /tmp/ccCiRfrp.s:67     .text:0000000000000000 .L0 
     /tmp/ccCiRfrp.s:68     .text:0000000000000004 .L0 
     /tmp/ccCiRfrp.s:72     .text:0000000000000010 .L0 
     /tmp/ccCiRfrp.s:73     .text:0000000000000010 .L0 
     /tmp/ccCiRfrp.s:74     .text:0000000000000010 .L0 
     /tmp/ccCiRfrp.s:76     .text:0000000000000014 .L0 
     /tmp/ccCiRfrp.s:81     .text:0000000000000018 .L0 
     /tmp/ccCiRfrp.s:82     .text:0000000000000018 .L0 
     /tmp/ccCiRfrp.s:83     .text:0000000000000018 .L0 
     /tmp/ccCiRfrp.s:84     .text:0000000000000018 .L0 
     /tmp/ccCiRfrp.s:88     .text:0000000000000024 .L0 
     /tmp/ccCiRfrp.s:89     .text:0000000000000024 .L0 
     /tmp/ccCiRfrp.s:91     .text:0000000000000028 .L0 
     /tmp/ccCiRfrp.s:94     .text:0000000000000030 .L0 
     /tmp/ccCiRfrp.s:97     .text:0000000000000034 .L0 
     /tmp/ccCiRfrp.s:98     .text:0000000000000038 .L0 
     /tmp/ccCiRfrp.s:105    .text._ZN14PeriodicThreadD2Ev:0000000000000000 _ZN14PeriodicThreadD2Ev
     /tmp/ccCiRfrp.s:108    .text._ZN14PeriodicThreadD2Ev:0000000000000000 .L0 
     /tmp/ccCiRfrp.s:110    .text._ZN14PeriodicThreadD2Ev:0000000000000000 .L0 
     /tmp/ccCiRfrp.s:111    .text._ZN14PeriodicThreadD2Ev:0000000000000004 .L0 
     /tmp/ccCiRfrp.s:114    .text._ZN14PeriodicThreadD2Ev:000000000000000c .L0 
     /tmp/ccCiRfrp.s:115    .text._ZN14PeriodicThreadD2Ev:000000000000000c .L0 
     /tmp/ccCiRfrp.s:117    .text._ZN14PeriodicThreadD2Ev:0000000000000010 .L0 
     /tmp/ccCiRfrp.s:250    .data.rel.ro.local._ZTV14PeriodicThread:0000000000000000 _ZTV14PeriodicThread
     /tmp/ccCiRfrp.s:120    .text._ZN14PeriodicThreadD2Ev:0000000000000010 .L0 
     /tmp/ccCiRfrp.s:126    .text._ZN14PeriodicThreadD2Ev:0000000000000028 .L0 
     /tmp/ccCiRfrp.s:128    .text._ZN14PeriodicThreadD2Ev:000000000000002c .L0 
     /tmp/ccCiRfrp.s:129    .text._ZN14PeriodicThreadD2Ev:000000000000002c .L0 
     /tmp/ccCiRfrp.s:131    .text._ZN14PeriodicThreadD2Ev:0000000000000030 .L0 
     /tmp/ccCiRfrp.s:133    .text._ZN14PeriodicThreadD2Ev:0000000000000034 .L0 
     /tmp/ccCiRfrp.s:105    .text._ZN14PeriodicThreadD2Ev:0000000000000000 _ZN14PeriodicThreadD1Ev
GAS LISTING /tmp/ccCiRfrp.s 			page 8


     /tmp/ccCiRfrp.s:142    .text._ZN14PeriodicThreadD0Ev:0000000000000000 _ZN14PeriodicThreadD0Ev
     /tmp/ccCiRfrp.s:145    .text._ZN14PeriodicThreadD0Ev:0000000000000000 .L0 
     /tmp/ccCiRfrp.s:147    .text._ZN14PeriodicThreadD0Ev:0000000000000000 .L0 
     /tmp/ccCiRfrp.s:148    .text._ZN14PeriodicThreadD0Ev:0000000000000004 .L0 
     /tmp/ccCiRfrp.s:152    .text._ZN14PeriodicThreadD0Ev:0000000000000010 .L0 
     /tmp/ccCiRfrp.s:153    .text._ZN14PeriodicThreadD0Ev:0000000000000010 .L0 
     /tmp/ccCiRfrp.s:154    .text._ZN14PeriodicThreadD0Ev:0000000000000010 .L0 
     /tmp/ccCiRfrp.s:156    .text._ZN14PeriodicThreadD0Ev:0000000000000014 .L0 
     /tmp/ccCiRfrp.s:162    .text._ZN14PeriodicThreadD0Ev:0000000000000018 .L0 
     /tmp/ccCiRfrp.s:172    .text._ZN14PeriodicThreadD0Ev:000000000000003c .L0 
     /tmp/ccCiRfrp.s:174    .text._ZN14PeriodicThreadD0Ev:0000000000000040 .L0 
     /tmp/ccCiRfrp.s:175    .text._ZN14PeriodicThreadD0Ev:0000000000000040 .L0 
     /tmp/ccCiRfrp.s:177    .text._ZN14PeriodicThreadD0Ev:0000000000000044 .L0 
     /tmp/ccCiRfrp.s:180    .text._ZN14PeriodicThreadD0Ev:0000000000000048 .L0 
     /tmp/ccCiRfrp.s:182    .text._ZN14PeriodicThreadD0Ev:000000000000004c .L0 
     /tmp/ccCiRfrp.s:189    .text:0000000000000038 _ZN14PeriodicThreadC2Em
     /tmp/ccCiRfrp.s:192    .text:0000000000000038 .L0 
     /tmp/ccCiRfrp.s:194    .text:0000000000000038 .L0 
     /tmp/ccCiRfrp.s:195    .text:000000000000003c .L0 
     /tmp/ccCiRfrp.s:200    .text:000000000000004c .L0 
     /tmp/ccCiRfrp.s:201    .text:000000000000004c .L0 
     /tmp/ccCiRfrp.s:202    .text:000000000000004c .L0 
     /tmp/ccCiRfrp.s:203    .text:000000000000004c .L0 
     /tmp/ccCiRfrp.s:205    .text:0000000000000050 .L0 
     /tmp/ccCiRfrp.s:210    .text:0000000000000058 .L0 
     /tmp/ccCiRfrp.s:218    .text:0000000000000070 .L0 
     /tmp/ccCiRfrp.s:226    .text:0000000000000090 .L0 
     /tmp/ccCiRfrp.s:227    .text:0000000000000094 .L0 
     /tmp/ccCiRfrp.s:229    .text:0000000000000098 .L0 
     /tmp/ccCiRfrp.s:230    .text:0000000000000098 .L0 
     /tmp/ccCiRfrp.s:232    .text:000000000000009c .L0 
     /tmp/ccCiRfrp.s:235    .text:00000000000000a0 .L0 
     /tmp/ccCiRfrp.s:238    .text:00000000000000a4 .L0 
     /tmp/ccCiRfrp.s:240    .text:00000000000000a8 .L0 
     /tmp/ccCiRfrp.s:189    .text:0000000000000038 _ZN14PeriodicThreadC1Em
     /tmp/ccCiRfrp.s:32     .text._ZN6Thread3runEv:0000000000000018 .L0 
     /tmp/ccCiRfrp.s:57     .text._ZN14PeriodicThread18periodicActivationEv:0000000000000018 .L0 
     /tmp/ccCiRfrp.s:261    .text:00000000000000a8 .L0 
     /tmp/ccCiRfrp.s:138    .text._ZN14PeriodicThreadD2Ev:0000000000000034 .L0 
     /tmp/ccCiRfrp.s:185    .text._ZN14PeriodicThreadD0Ev:000000000000004c .L0 
     /tmp/ccCiRfrp.s:218    .text:0000000000000070 .L0 
     /tmp/ccCiRfrp.s:222    .text:0000000000000084 .L0 
     /tmp/ccCiRfrp.s:80     .text:0000000000000018 .L6
     /tmp/ccCiRfrp.s:120    .text._ZN14PeriodicThreadD2Ev:0000000000000010 .L0 
     /tmp/ccCiRfrp.s:162    .text._ZN14PeriodicThreadD0Ev:0000000000000018 .L0 
     /tmp/ccCiRfrp.s:776    .debug_abbrev:0000000000000000 .Ldebug_abbrev0
     /tmp/ccCiRfrp.s:1658   .debug_str:0000000000000297 .LASF39
     /tmp/ccCiRfrp.s:1612   .debug_str:000000000000012b .LASF40
     /tmp/ccCiRfrp.s:1650   .debug_str:0000000000000228 .LASF41
     /tmp/ccCiRfrp.s:1560   .debug_ranges:0000000000000000 .Ldebug_ranges0
     /tmp/ccCiRfrp.s:1574   .debug_line:0000000000000000 .Ldebug_line0
     /tmp/ccCiRfrp.s:1626   .debug_str:000000000000018a .LASF0
     /tmp/ccCiRfrp.s:1632   .debug_str:00000000000001b4 .LASF1
     /tmp/ccCiRfrp.s:1620   .debug_str:0000000000000160 .LASF2
     /tmp/ccCiRfrp.s:1606   .debug_str:000000000000010a .LASF4
     /tmp/ccCiRfrp.s:1652   .debug_str:000000000000024d .LASF3
     /tmp/ccCiRfrp.s:1584   .debug_str:000000000000004d .LASF5
GAS LISTING /tmp/ccCiRfrp.s 			page 9


     /tmp/ccCiRfrp.s:1594   .debug_str:00000000000000b0 .LASF6
     /tmp/ccCiRfrp.s:1634   .debug_str:00000000000001c7 .LASF7
     /tmp/ccCiRfrp.s:1624   .debug_str:0000000000000177 .LASF8
     /tmp/ccCiRfrp.s:1666   .debug_str:0000000000000389 .LASF9
     /tmp/ccCiRfrp.s:1602   .debug_str:00000000000000e4 .LASF10
     /tmp/ccCiRfrp.s:1640   .debug_str:00000000000001ee .LASF11
     /tmp/ccCiRfrp.s:1660   .debug_str:000000000000035b .LASF12
     /tmp/ccCiRfrp.s:1586   .debug_str:0000000000000054 .LASF13
     /tmp/ccCiRfrp.s:1576   .debug_str:0000000000000000 .LASF14
     /tmp/ccCiRfrp.s:1588   .debug_str:0000000000000064 .LASF15
     /tmp/ccCiRfrp.s:1646   .debug_str:000000000000020c .LASF16
     /tmp/ccCiRfrp.s:1592   .debug_str:000000000000009a .LASF17
     /tmp/ccCiRfrp.s:1596   .debug_str:00000000000000b7 .LASF18
     /tmp/ccCiRfrp.s:1636   .debug_str:00000000000001da .LASF19
     /tmp/ccCiRfrp.s:1622   .debug_str:000000000000016e .LASF42
     /tmp/ccCiRfrp.s:1628   .debug_str:0000000000000197 .LASF20
     /tmp/ccCiRfrp.s:1648   .debug_str:0000000000000222 .LASF21
     /tmp/ccCiRfrp.s:1638   .debug_str:00000000000001df .LASF22
     /tmp/ccCiRfrp.s:1578   .debug_str:0000000000000010 .LASF23
     /tmp/ccCiRfrp.s:1670   .debug_str:00000000000003a6 .LASF24
     /tmp/ccCiRfrp.s:1582   .debug_str:0000000000000035 .LASF43
     /tmp/ccCiRfrp.s:1610   .debug_str:0000000000000118 .LASF44
     /tmp/ccCiRfrp.s:1590   .debug_str:0000000000000070 .LASF45
     /tmp/ccCiRfrp.s:1598   .debug_str:00000000000000bc .LASF25
     /tmp/ccCiRfrp.s:1656   .debug_str:000000000000026f .LASF46
     /tmp/ccCiRfrp.s:1674   .debug_str:00000000000003d1 .LASF26
     /tmp/ccCiRfrp.s:1604   .debug_str:00000000000000f2 .LASF47
     /tmp/ccCiRfrp.s:1664   .debug_str:0000000000000382 .LASF48
     /tmp/ccCiRfrp.s:1616   .debug_str:0000000000000148 .LASF49
     /tmp/ccCiRfrp.s:1644   .debug_str:0000000000000207 .LASF27
     /tmp/ccCiRfrp.s:1642   .debug_str:00000000000001fd .LASF28
     /tmp/ccCiRfrp.s:1662   .debug_str:000000000000036a .LASF29
     /tmp/ccCiRfrp.s:143    .text._ZN14PeriodicThreadD0Ev:0000000000000000 .LFB46
     /tmp/ccCiRfrp.s:183    .text._ZN14PeriodicThreadD0Ev:000000000000004c .LFE46
     /tmp/ccCiRfrp.s:1449   .debug_loc:0000000000000000 .LLST2
     /tmp/ccCiRfrp.s:159    .text._ZN14PeriodicThreadD0Ev:0000000000000018 .LBB6
     /tmp/ccCiRfrp.s:167    .text._ZN14PeriodicThreadD0Ev:000000000000002c .LBE6
     /tmp/ccCiRfrp.s:1467   .debug_loc:000000000000004c .LLST3
     /tmp/ccCiRfrp.s:165    .text._ZN14PeriodicThreadD0Ev:000000000000002c .LVL10
     /tmp/ccCiRfrp.s:170    .text._ZN14PeriodicThreadD0Ev:0000000000000038 .LVL11
     /tmp/ccCiRfrp.s:1630   .debug_str:000000000000019c .LASF30
     /tmp/ccCiRfrp.s:106    .text._ZN14PeriodicThreadD2Ev:0000000000000000 .LFB44
     /tmp/ccCiRfrp.s:134    .text._ZN14PeriodicThreadD2Ev:0000000000000034 .LFE44
     /tmp/ccCiRfrp.s:1478   .debug_loc:0000000000000082 .LLST1
     /tmp/ccCiRfrp.s:123    .text._ZN14PeriodicThreadD2Ev:0000000000000024 .LVL7
     /tmp/ccCiRfrp.s:1608   .debug_str:0000000000000111 .LASF50
     /tmp/ccCiRfrp.s:1600   .debug_str:00000000000000cc .LASF31
     /tmp/ccCiRfrp.s:190    .text:0000000000000038 .LFB35
     /tmp/ccCiRfrp.s:241    .text:00000000000000a8 .LFE35
     /tmp/ccCiRfrp.s:1492   .debug_loc:00000000000000bb .LLST4
     /tmp/ccCiRfrp.s:1510   .debug_loc:0000000000000107 .LLST5
     /tmp/ccCiRfrp.s:213    .text:0000000000000064 .LVL15
     /tmp/ccCiRfrp.s:221    .text:0000000000000084 .LVL16
     /tmp/ccCiRfrp.s:62     .text:0000000000000000 .LFB33
     /tmp/ccCiRfrp.s:99     .text:0000000000000038 .LFE33
     /tmp/ccCiRfrp.s:1528   .debug_loc:0000000000000153 .LLST0
     /tmp/ccCiRfrp.s:1676   .debug_str:00000000000003e1 .LASF32
GAS LISTING /tmp/ccCiRfrp.s 			page 10


     /tmp/ccCiRfrp.s:86     .text:0000000000000024 .LVL4
     /tmp/ccCiRfrp.s:37     .text._ZN14PeriodicThread18periodicActivationEv:0000000000000000 .LFB32
     /tmp/ccCiRfrp.s:55     .text._ZN14PeriodicThread18periodicActivationEv:0000000000000018 .LFE32
     /tmp/ccCiRfrp.s:11     .text._ZN6Thread3runEv:0000000000000000 .LFB31
     /tmp/ccCiRfrp.s:30     .text._ZN6Thread3runEv:0000000000000018 .LFE31
     /tmp/ccCiRfrp.s:1618   .debug_str:0000000000000159 .LASF33
     /tmp/ccCiRfrp.s:1654   .debug_str:000000000000025f .LASF35
     /tmp/ccCiRfrp.s:1614   .debug_str:0000000000000142 .LASF34
     /tmp/ccCiRfrp.s:1668   .debug_str:0000000000000399 .LASF36
     /tmp/ccCiRfrp.s:1672   .debug_str:00000000000003c1 .LASF37
     /tmp/ccCiRfrp.s:1580   .debug_str:000000000000002a .LASF38
     /tmp/ccCiRfrp.s:146    .text._ZN14PeriodicThreadD0Ev:0000000000000000 .LVL8
     /tmp/ccCiRfrp.s:178    .text._ZN14PeriodicThreadD0Ev:0000000000000044 .LVL12
     /tmp/ccCiRfrp.s:158    .text._ZN14PeriodicThreadD0Ev:0000000000000018 .LVL9
     /tmp/ccCiRfrp.s:109    .text._ZN14PeriodicThreadD2Ev:0000000000000000 .LVL6
     /tmp/ccCiRfrp.s:193    .text:0000000000000038 .LVL13
     /tmp/ccCiRfrp.s:211    .text:000000000000005c .LVL14
     /tmp/ccCiRfrp.s:233    .text:000000000000009c .LVL17
     /tmp/ccCiRfrp.s:236    .text:00000000000000a0 .LVL18
     /tmp/ccCiRfrp.s:66     .text:0000000000000000 .LVL2
     /tmp/ccCiRfrp.s:79     .text:0000000000000018 .LVL3
     /tmp/ccCiRfrp.s:262    .debug_info:0000000000000000 .Ldebug_info0
     /tmp/ccCiRfrp.s:5      .text:0000000000000000 .Ltext0
     /tmp/ccCiRfrp.s:258    .text:00000000000000a8 .Letext0
                           .group:0000000000000000 _ZN14PeriodicThreadD5Ev

UNDEFINED SYMBOLS
_Z10time_sleepm
_ZN6ThreadD2Ev
_ZdlPv
_Znwm
_ZN6ThreadC2EPFvPvES0_
