GAS LISTING /tmp/ccgJ1CJ6.s 			page 1


   1              		.file	"sleepingthread.cpp"
   2              		.option pic
   3              		.option norelax
   4              		.text
   5              	.Ltext0:
   6              		.align	2
   8              	_Z41__static_initialization_and_destruction_0ii:
   9              	.LFB50:
  10              		.file 1 "src/sleepingthread.cpp"
   1:src/sleepingthread.cpp **** //
   2:src/sleepingthread.cpp **** // Created by DjordjeS on 26.7.2022.
   3:src/sleepingthread.cpp **** //
   4:src/sleepingthread.cpp **** 
   5:src/sleepingthread.cpp **** #include "../h/sleepingthread.hpp"
   6:src/sleepingthread.cpp **** 
   7:src/sleepingthread.cpp **** List<TCB> SleepingThread::sleeping_threads; //ulancana lista uspavanih niti, head se najranije budi
   8:src/sleepingthread.cpp **** 
   9:src/sleepingthread.cpp **** time_t SleepingThread::time_elapsed = 0;
  10:src/sleepingthread.cpp **** 
  11:src/sleepingthread.cpp **** void SleepingThread::go_sleep(TCB *thread, time_t time) {
  12:src/sleepingthread.cpp ****     //SLEEPING state je postavljeno u TCB:sleep
  13:src/sleepingthread.cpp ****     if(time<0 || thread==nullptr) return;
  14:src/sleepingthread.cpp **** 
  15:src/sleepingthread.cpp ****     thread->time_to_sleep = time + time_elapsed; //relativno vreme budjenja
  16:src/sleepingthread.cpp **** 
  17:src/sleepingthread.cpp ****     if(sleeping_threads.get_length() == 0){
  18:src/sleepingthread.cpp ****         //prazna lista uspavanih - ova thread postaje prva i jedina
  19:src/sleepingthread.cpp ****         sleeping_threads.addFirst(thread);
  20:src/sleepingthread.cpp ****     }
  21:src/sleepingthread.cpp ****     else{
  22:src/sleepingthread.cpp ****         List<TCB>::Elem* tren=sleeping_threads.head;
  23:src/sleepingthread.cpp ****         List<TCB>::Elem* prev=nullptr;
  24:src/sleepingthread.cpp ****         bool added=false;
  25:src/sleepingthread.cpp **** 
  26:src/sleepingthread.cpp ****         while(tren!=nullptr){
  27:src/sleepingthread.cpp ****             if(tren->data->time_to_sleep > thread->time_to_sleep){
  28:src/sleepingthread.cpp ****                 //nasli smo nit koja ima vreme duze(kasnije) od naseg
  29:src/sleepingthread.cpp ****                 if(prev==nullptr){
  30:src/sleepingthread.cpp ****                     //nas thread postaje novi prvi u listi sa najmanjim vremenom - jer glava ima du
  31:src/sleepingthread.cpp ****                     sleeping_threads.addFirst(thread);
  32:src/sleepingthread.cpp ****                     added=true;
  33:src/sleepingthread.cpp ****                 }
  34:src/sleepingthread.cpp ****                 else{
  35:src/sleepingthread.cpp ****                     //izmedju 2
  36:src/sleepingthread.cpp ****                     List<TCB>::Elem* new_elem= new List<TCB>::Elem(thread, tren);
  37:src/sleepingthread.cpp ****                     prev->next=new_elem;
  38:src/sleepingthread.cpp ****                     sleeping_threads.length++;
  39:src/sleepingthread.cpp ****                     added=true;
  40:src/sleepingthread.cpp ****                 }
  41:src/sleepingthread.cpp ****             }
  42:src/sleepingthread.cpp ****             prev=tren;
  43:src/sleepingthread.cpp ****             tren=tren->next;
  44:src/sleepingthread.cpp ****         }
  45:src/sleepingthread.cpp ****         if(added==false){
  46:src/sleepingthread.cpp ****             //ovaj thread je poslednji u listi - najduze vreme
  47:src/sleepingthread.cpp ****             sleeping_threads.addLast(thread);
  48:src/sleepingthread.cpp ****         }
GAS LISTING /tmp/ccgJ1CJ6.s 			page 2


  49:src/sleepingthread.cpp ****     }
  50:src/sleepingthread.cpp **** }
  51:src/sleepingthread.cpp **** 
  52:src/sleepingthread.cpp **** void SleepingThread::tick() {
  53:src/sleepingthread.cpp ****     if(sleeping_threads.length==0){
  54:src/sleepingthread.cpp ****         //ne merimo vreme - nema niti koje spavaju
  55:src/sleepingthread.cpp ****         time_elapsed=0;
  56:src/sleepingthread.cpp ****     }
  57:src/sleepingthread.cpp ****     else{
  58:src/sleepingthread.cpp ****         time_elapsed=time_elapsed+1;
  59:src/sleepingthread.cpp ****     }
  60:src/sleepingthread.cpp **** 
  61:src/sleepingthread.cpp ****     while(sleeping_threads.length>0){
  62:src/sleepingthread.cpp **** 
  63:src/sleepingthread.cpp ****         if(time_elapsed >= sleeping_threads.peekFirst()->time_to_sleep){
  64:src/sleepingthread.cpp ****             TCB* thr=sleeping_threads.removeFirst();
  65:src/sleepingthread.cpp ****             if(thr->getState() == TCB::SLEEPING){
  66:src/sleepingthread.cpp ****                 thr->prepare();
  67:src/sleepingthread.cpp ****             }
  68:src/sleepingthread.cpp ****         }
  69:src/sleepingthread.cpp ****         else{
  70:src/sleepingthread.cpp ****             break;
  71:src/sleepingthread.cpp ****         }
  72:src/sleepingthread.cpp ****     }
  73:src/sleepingthread.cpp **** }
  11              		.loc 1 73 1
  12              		.cfi_startproc
  13              	.LVL0:
  14 0000 130101FF 		addi	sp,sp,-16
  15              		.cfi_def_cfa_offset 16
  16 0004 23348100 		sd	s0,8(sp)
  17              		.cfi_offset 8, -8
  18 0008 13040101 		addi	s0,sp,16
  19              		.cfi_def_cfa 8, 0
  20              		.loc 1 73 1 is_stmt 0
  21 000c 93071000 		li	a5,1
  22 0010 6308F500 		beq	a0,a5,.L4
  23              	.L1:
  24 0014 03348100 		ld	s0,8(sp)
  25              		.cfi_remember_state
  26              		.cfi_restore 8
  27              		.cfi_def_cfa 2, 16
  28 0018 13010101 		addi	sp,sp,16
  29              		.cfi_def_cfa_offset 0
  30 001c 67800000 		jr	ra
  31              	.L4:
  32              		.cfi_restore_state
  33              		.loc 1 73 1 discriminator 1
  34 0020 B7070100 		li	a5,65536
  35 0024 9387F7FF 		addi	a5,a5,-1
  36 0028 E396F5FE 		bne	a1,a5,.L1
  37              	.LVL1:
  38              	.LBB36:
  39              	.LBB37:
  40              	.LBB38:
  41              		.file 2 "src/../h/list.hpp"
   1:src/../h/list.hpp **** //
GAS LISTING /tmp/ccgJ1CJ6.s 			page 3


   2:src/../h/list.hpp **** // Created by DjordjeS on 20.7.2022.
   3:src/../h/list.hpp **** //
   4:src/../h/list.hpp **** 
   5:src/../h/list.hpp **** #ifndef OS1_VEZBE07_RISCV_CONTEXT_SWITCH_2_INTERRUPT_LIST_HPP
   6:src/../h/list.hpp **** #define OS1_VEZBE07_RISCV_CONTEXT_SWITCH_2_INTERRUPT_LIST_HPP
   7:src/../h/list.hpp **** 
   8:src/../h/list.hpp **** #include "../lib/hw.h"
   9:src/../h/list.hpp **** #include "../lib/mem.h"
  10:src/../h/list.hpp **** 
  11:src/../h/list.hpp **** template<typename T>
  12:src/../h/list.hpp **** class List
  13:src/../h/list.hpp **** {
  14:src/../h/list.hpp **** protected:
  15:src/../h/list.hpp ****     struct Elem{
  16:src/../h/list.hpp ****         //---[NEW i DELETE]--------------------------------------------
  17:src/../h/list.hpp ****         void *operator new(size_t n){return __mem_alloc(n);}
  18:src/../h/list.hpp ****         void *operator new[](size_t n){return __mem_alloc(n);}
  19:src/../h/list.hpp ****         void operator delete(void *p) {__mem_free(p);}
  20:src/../h/list.hpp ****         void operator delete[](void *p) {__mem_free(p);}
  21:src/../h/list.hpp ****         //-------------------------------------------------------------
  22:src/../h/list.hpp **** 
  23:src/../h/list.hpp ****         T *data;
  24:src/../h/list.hpp ****         Elem *next;
  25:src/../h/list.hpp **** 
  26:src/../h/list.hpp ****         Elem(T *data, Elem *next) : data(data), next(next) {}
  27:src/../h/list.hpp ****     };
  28:src/../h/list.hpp **** 
  29:src/../h/list.hpp ****     Elem *head, *tail;
  30:src/../h/list.hpp ****     unsigned length;
  31:src/../h/list.hpp ****     friend class TCB;
  32:src/../h/list.hpp ****     friend class SleepingThread;
  33:src/../h/list.hpp **** 
  34:src/../h/list.hpp **** public:
  35:src/../h/list.hpp ****     //---[NEW i DELETE]--------------------------------------------
  36:src/../h/list.hpp ****     void *operator new(size_t n){return __mem_alloc(n);}
  37:src/../h/list.hpp ****     void *operator new[](size_t n){return __mem_alloc(n);}
  38:src/../h/list.hpp ****     void operator delete(void *p) {__mem_free(p);}
  39:src/../h/list.hpp ****     void operator delete[](void *p) {__mem_free(p);}
  40:src/../h/list.hpp ****     //-------------------------------------------------------------
  41:src/../h/list.hpp ****     List() : head(0), tail(0), length(0) {}
  42              		.loc 2 41 40
  43 002c 97070000 		lla	a5,.LANCHOR0
  43      93870700 
  44 0034 23B00700 		sd	zero,0(a5)
  45 0038 23B40700 		sd	zero,8(a5)
  46 003c 23A80700 		sw	zero,16(a5)
  47              	.LVL2:
  48              	.LBE38:
  49              	.LBE37:
  50              	.LBE36:
  51              		.loc 1 73 1
  52 0040 6FF05FFD 		j	.L1
  53              		.cfi_endproc
  54              	.LFE50:
  56              		.align	2
  57              		.globl	_ZN14SleepingThread8go_sleepEP3TCBm
  59              	_ZN14SleepingThread8go_sleepEP3TCBm:
GAS LISTING /tmp/ccgJ1CJ6.s 			page 4


  60              	.LFB35:
  11:src/sleepingthread.cpp ****     //SLEEPING state je postavljeno u TCB:sleep
  61              		.loc 1 11 57 is_stmt 1
  62              		.cfi_startproc
  63              	.LVL3:
  13:src/sleepingthread.cpp **** 
  64              		.loc 1 13 5
  65 0044 6300051C 		beqz	a0,.L17
  11:src/sleepingthread.cpp ****     //SLEEPING state je postavljeno u TCB:sleep
  66              		.loc 1 11 57 is_stmt 0
  67 0048 130101FD 		addi	sp,sp,-48
  68              		.cfi_def_cfa_offset 48
  69 004c 23341102 		sd	ra,40(sp)
  70 0050 23308102 		sd	s0,32(sp)
  71 0054 233C9100 		sd	s1,24(sp)
  72 0058 23382101 		sd	s2,16(sp)
  73 005c 23343101 		sd	s3,8(sp)
  74              		.cfi_offset 1, -8
  75              		.cfi_offset 8, -16
  76              		.cfi_offset 9, -24
  77              		.cfi_offset 18, -32
  78              		.cfi_offset 19, -40
  79 0060 13040103 		addi	s0,sp,48
  80              		.cfi_def_cfa 8, 0
  81 0064 13090500 		mv	s2,a0
  15:src/sleepingthread.cpp **** 
  82              		.loc 1 15 5 is_stmt 1
  15:src/sleepingthread.cpp **** 
  83              		.loc 1 15 34 is_stmt 0
  84 0068 97070000 		lla	a5,.LANCHOR0
  84      93870700 
  85 0070 03B78701 		ld	a4,24(a5)
  86 0074 B385E500 		add	a1,a1,a4
  87              	.LVL4:
  15:src/sleepingthread.cpp **** 
  88              		.loc 1 15 27
  89 0078 2330B500 		sd	a1,0(a0)
  17:src/sleepingthread.cpp ****         //prazna lista uspavanih - ova thread postaje prva i jedina
  90              		.loc 1 17 5 is_stmt 1
  91              	.LVL5:
  92              	.LBB73:
  93              	.LBB74:
  94              	.LBB75:
  42:src/../h/list.hpp **** 
  43:src/../h/list.hpp ****     List(const List<T> &) = delete;
  44:src/../h/list.hpp **** 
  45:src/../h/list.hpp ****     List<T> &operator=(const List<T> &) = delete;
  46:src/../h/list.hpp **** 
  47:src/../h/list.hpp ****     unsigned get_length() const { return length;}
  95              		.loc 2 47 42 is_stmt 0
  96 007c 83A70701 		lw	a5,16(a5)
  97              	.LVL6:
  98              	.LBE75:
  99              	.LBE74:
  17:src/sleepingthread.cpp ****         //prazna lista uspavanih - ova thread postaje prva i jedina
 100              		.loc 1 17 5
 101 0080 638C0700 		beqz	a5,.L20
GAS LISTING /tmp/ccgJ1CJ6.s 			page 5


 102              	.LBB76:
  22:src/sleepingthread.cpp ****         List<TCB>::Elem* prev=nullptr;
 103              		.loc 1 22 9 is_stmt 1
  22:src/sleepingthread.cpp ****         List<TCB>::Elem* prev=nullptr;
 104              		.loc 1 22 26 is_stmt 0
 105 0084 97040000 		ld	s1,.LANCHOR0
 105      83B40400 
 106              	.LVL7:
  23:src/sleepingthread.cpp ****         bool added=false;
 107              		.loc 1 23 9 is_stmt 1
  24:src/sleepingthread.cpp **** 
 108              		.loc 1 24 9
  24:src/sleepingthread.cpp **** 
 109              		.loc 1 24 14 is_stmt 0
 110 008c 93060000 		li	a3,0
  23:src/sleepingthread.cpp ****         bool added=false;
 111              		.loc 1 23 26
 112 0090 93090000 		li	s3,0
 113 0094 6F00000A 		j	.L13
 114              	.LVL8:
 115              	.L20:
 116              	.LBE76:
  19:src/sleepingthread.cpp ****     }
 117              		.loc 1 19 9 is_stmt 1
 118              	.LBB104:
 119              	.LBB105:
 120              	.LBB106:
 121              	.LBB107:
  17:src/../h/list.hpp ****         void *operator new[](size_t n){return __mem_alloc(n);}
 122              		.loc 2 17 56 is_stmt 0
 123 0098 13050001 		li	a0,16
 124              	.LVL9:
 125 009c 97000000 		call	__mem_alloc@plt
 125      E7800000 
 126              	.LVL10:
 127              	.LBE107:
 128              	.LBE106:
  48:src/../h/list.hpp **** 
  49:src/../h/list.hpp ****     void addFirst(T *data)
  50:src/../h/list.hpp ****     {
  51:src/../h/list.hpp ****         Elem *elem = new Elem(data, head);
 129              		.loc 2 51 22
 130 00a4 97070000 		lla	a5,.LANCHOR0
 130      93870700 
 131 00ac 03B70700 		ld	a4,0(a5)
 132              	.LVL11:
 133              	.LBB108:
 134              	.LBB109:
  26:src/../h/list.hpp ****     };
 135              		.loc 2 26 58
 136 00b0 23302501 		sd	s2,0(a0)
 137 00b4 2334E500 		sd	a4,8(a0)
 138              	.LVL12:
 139              	.LBE109:
 140              	.LBE108:
  52:src/../h/list.hpp ****         head = elem;
 141              		.loc 2 52 9
GAS LISTING /tmp/ccgJ1CJ6.s 			page 6


 142 00b8 23B0A700 		sd	a0,0(a5)
  53:src/../h/list.hpp ****         if (!tail) { tail = head; }
 143              		.loc 2 53 14
 144 00bc 83B78700 		ld	a5,8(a5)
 145              		.loc 2 53 9
 146 00c0 638E0700 		beqz	a5,.L21
 147              	.L8:
  54:src/../h/list.hpp ****         length++;
 148              		.loc 2 54 9
 149 00c4 17070000 		lla	a4,.LANCHOR0
 149      13070700 
 150 00cc 83270701 		lw	a5,16(a4)
 151 00d0 9B871700 		addiw	a5,a5,1
 152 00d4 2328F700 		sw	a5,16(a4)
  55:src/../h/list.hpp ****     }
 153              		.loc 2 55 5
 154 00d8 6F00800B 		j	.L5
 155              	.L21:
  53:src/../h/list.hpp ****         if (!tail) { tail = head; }
 156              		.loc 2 53 22
 157 00dc 97070000 		sd	a0,.LANCHOR0+8,a5
 157      23B0A700 
 158 00e4 6FF01FFE 		j	.L8
 159              	.LVL13:
 160              	.L23:
 161              	.LBE105:
 162              	.LBE104:
 163              	.LBB110:
 164              	.LBB77:
 165              	.LBB78:
 166              	.LBB79:
  31:src/sleepingthread.cpp ****                     added=true;
 167              		.loc 1 31 21 is_stmt 1
 168              	.LBB80:
 169              	.LBB81:
 170              	.LBB82:
 171              	.LBB83:
  17:src/../h/list.hpp ****         void *operator new[](size_t n){return __mem_alloc(n);}
 172              		.loc 2 17 56 is_stmt 0
 173 00e8 13050001 		li	a0,16
 174 00ec 97000000 		call	__mem_alloc@plt
 174      E7800000 
 175              	.LVL14:
 176              	.LBE83:
 177              	.LBE82:
  51:src/../h/list.hpp ****         head = elem;
 178              		.loc 2 51 22
 179 00f4 97070000 		lla	a5,.LANCHOR0
 179      93870700 
 180 00fc 03B70700 		ld	a4,0(a5)
 181              	.LVL15:
 182              	.LBB84:
 183              	.LBB85:
  26:src/../h/list.hpp ****     };
 184              		.loc 2 26 58
 185 0100 23302501 		sd	s2,0(a0)
 186 0104 2334E500 		sd	a4,8(a0)
GAS LISTING /tmp/ccgJ1CJ6.s 			page 7


 187              	.LVL16:
 188              	.LBE85:
 189              	.LBE84:
  52:src/../h/list.hpp ****         if (!tail) { tail = head; }
 190              		.loc 2 52 9
 191 0108 23B0A700 		sd	a0,0(a5)
  53:src/../h/list.hpp ****         length++;
 192              		.loc 2 53 14
 193 010c 83B78700 		ld	a5,8(a5)
  53:src/../h/list.hpp ****         length++;
 194              		.loc 2 53 9
 195 0110 63880706 		beqz	a5,.L22
 196              	.L12:
  54:src/../h/list.hpp ****     }
 197              		.loc 2 54 9
 198 0114 17070000 		lla	a4,.LANCHOR0
 198      13070700 
 199 011c 83270701 		lw	a5,16(a4)
 200 0120 9B871700 		addiw	a5,a5,1
 201 0124 2328F700 		sw	a5,16(a4)
 202              	.LBE81:
 203              	.LBE80:
  32:src/sleepingthread.cpp ****                 }
 204              		.loc 1 32 26
 205 0128 93061000 		li	a3,1
 206              	.LVL17:
 207              	.L10:
 208              	.LBE79:
 209              	.LBE78:
  42:src/sleepingthread.cpp ****             tren=tren->next;
 210              		.loc 1 42 13 is_stmt 1
  43:src/sleepingthread.cpp ****         }
 211              		.loc 1 43 13
  42:src/sleepingthread.cpp ****             tren=tren->next;
 212              		.loc 1 42 17 is_stmt 0
 213 012c 93890400 		mv	s3,s1
  43:src/sleepingthread.cpp ****         }
 214              		.loc 1 43 17
 215 0130 83B48400 		ld	s1,8(s1)
 216              	.LVL18:
 217              	.L13:
 218              	.LBE77:
  26:src/sleepingthread.cpp ****             if(tren->data->time_to_sleep > thread->time_to_sleep){
 219              		.loc 1 26 9 is_stmt 1
  26:src/sleepingthread.cpp ****             if(tren->data->time_to_sleep > thread->time_to_sleep){
 220              		.loc 1 26 19
 221 0134 638C0404 		beqz	s1,.L9
 222              	.LBB96:
  27:src/sleepingthread.cpp ****                 //nasli smo nit koja ima vreme duze(kasnije) od naseg
 223              		.loc 1 27 13
 224              	.LBB94:
  27:src/sleepingthread.cpp ****                 //nasli smo nit koja ima vreme duze(kasnije) od naseg
 225              		.loc 1 27 22 is_stmt 0
 226 0138 83B70400 		ld	a5,0(s1)
  27:src/sleepingthread.cpp ****                 //nasli smo nit koja ima vreme duze(kasnije) od naseg
 227              		.loc 1 27 28
 228 013c 03B70700 		ld	a4,0(a5)
GAS LISTING /tmp/ccgJ1CJ6.s 			page 8


  27:src/sleepingthread.cpp ****                 //nasli smo nit koja ima vreme duze(kasnije) od naseg
 229              		.loc 1 27 52
 230 0140 83370900 		ld	a5,0(s2)
  27:src/sleepingthread.cpp ****                 //nasli smo nit koja ima vreme duze(kasnije) od naseg
 231              		.loc 1 27 13
 232 0144 E3F4E7FE 		bleu	a4,a5,.L10
 233              	.LBE94:
 234              	.LBE96:
 235              	.LBE110:
 236              	.LBE73:
  29:src/sleepingthread.cpp ****                     //nas thread postaje novi prvi u listi sa najmanjim vremenom - jer glava ima du
 237              		.loc 1 29 17 is_stmt 1
 238              	.LBB113:
 239              	.LBB111:
 240              	.LBB97:
 241              	.LBB95:
 242              	.LBB93:
 243 0148 E38009FA 		beqz	s3,.L23
 244              	.LBB87:
  36:src/sleepingthread.cpp ****                     prev->next=new_elem;
 245              		.loc 1 36 21
 246              	.LVL19:
 247              	.LBB88:
 248              	.LBB89:
  17:src/../h/list.hpp ****         void *operator new[](size_t n){return __mem_alloc(n);}
 249              		.loc 2 17 56 is_stmt 0
 250 014c 13050001 		li	a0,16
 251 0150 97000000 		call	__mem_alloc@plt
 251      E7800000 
 252              	.LVL20:
 253              	.LBE89:
 254              	.LBE88:
 255              	.LBB90:
 256              	.LBB91:
  26:src/../h/list.hpp ****     };
 257              		.loc 2 26 58
 258 0158 23302501 		sd	s2,0(a0)
 259 015c 23349500 		sd	s1,8(a0)
 260              	.LVL21:
 261              	.LBE91:
 262              	.LBE90:
  37:src/sleepingthread.cpp ****                     sleeping_threads.length++;
 263              		.loc 1 37 21 is_stmt 1
  37:src/sleepingthread.cpp ****                     sleeping_threads.length++;
 264              		.loc 1 37 31 is_stmt 0
 265 0160 23B4A900 		sd	a0,8(s3)
  38:src/sleepingthread.cpp ****                     added=true;
 266              		.loc 1 38 21 is_stmt 1
  38:src/sleepingthread.cpp ****                     added=true;
 267              		.loc 1 38 38 is_stmt 0
 268 0164 17070000 		lla	a4,.LANCHOR0
 268      13070700 
 269 016c 83270701 		lw	a5,16(a4)
  38:src/sleepingthread.cpp ****                     added=true;
 270              		.loc 1 38 44
 271 0170 9B871700 		addiw	a5,a5,1
 272 0174 2328F700 		sw	a5,16(a4)
GAS LISTING /tmp/ccgJ1CJ6.s 			page 9


  39:src/sleepingthread.cpp ****                 }
 273              		.loc 1 39 21 is_stmt 1
 274              	.LVL22:
  39:src/sleepingthread.cpp ****                 }
 275              		.loc 1 39 26 is_stmt 0
 276 0178 93061000 		li	a3,1
 277 017c 6FF01FFB 		j	.L10
 278              	.LVL23:
 279              	.L22:
 280              	.LBE87:
 281              	.LBB92:
 282              	.LBB86:
  53:src/../h/list.hpp ****         length++;
 283              		.loc 2 53 22
 284 0180 97070000 		sd	a0,.LANCHOR0+8,a5
 284      23B0A700 
 285 0188 6FF0DFF8 		j	.L12
 286              	.LVL24:
 287              	.L9:
 288              	.LBE86:
 289              	.LBE92:
 290              	.LBE93:
 291              	.LBE95:
 292              	.LBE97:
  45:src/sleepingthread.cpp ****             //ovaj thread je poslednji u listi - najduze vreme
 293              		.loc 1 45 9 is_stmt 1
 294 018c 63800602 		beqz	a3,.L24
 295              	.LVL25:
 296              	.L5:
 297              	.LBE111:
 298              	.LBE113:
  50:src/sleepingthread.cpp **** 
 299              		.loc 1 50 1 is_stmt 0
 300 0190 83308102 		ld	ra,40(sp)
 301              		.cfi_remember_state
 302              		.cfi_restore 1
 303 0194 03340102 		ld	s0,32(sp)
 304              		.cfi_restore 8
 305              		.cfi_def_cfa 2, 48
 306 0198 83348101 		ld	s1,24(sp)
 307              		.cfi_restore 9
 308 019c 03390101 		ld	s2,16(sp)
 309              		.cfi_restore 18
 310              	.LVL26:
 311 01a0 83398100 		ld	s3,8(sp)
 312              		.cfi_restore 19
 313 01a4 13010103 		addi	sp,sp,48
 314              		.cfi_def_cfa_offset 0
 315 01a8 67800000 		jr	ra
 316              	.LVL27:
 317              	.L24:
 318              		.cfi_restore_state
 319              	.LBB114:
 320              	.LBB112:
  47:src/sleepingthread.cpp ****         }
 321              		.loc 1 47 13 is_stmt 1
 322              	.LBB98:
GAS LISTING /tmp/ccgJ1CJ6.s 			page 10


 323              	.LBB99:
 324              	.LBB100:
 325              	.LBB101:
  17:src/../h/list.hpp ****         void *operator new[](size_t n){return __mem_alloc(n);}
 326              		.loc 2 17 56 is_stmt 0
 327 01ac 13050001 		li	a0,16
 328 01b0 97000000 		call	__mem_alloc@plt
 328      E7800000 
 329              	.LVL28:
 330              	.LBE101:
 331              	.LBE100:
 332              	.LBB102:
 333              	.LBB103:
  26:src/../h/list.hpp ****     };
 334              		.loc 2 26 58
 335 01b8 23302501 		sd	s2,0(a0)
 336 01bc 23340500 		sd	zero,8(a0)
 337              	.LVL29:
 338              	.LBE103:
 339              	.LBE102:
  56:src/../h/list.hpp **** 
  57:src/../h/list.hpp ****     void addLast(T *data)
  58:src/../h/list.hpp ****     {
  59:src/../h/list.hpp ****         Elem *elem = new Elem(data, 0);
  60:src/../h/list.hpp ****         if (tail)
 340              		.loc 2 60 13
 341 01c0 97070000 		ld	a5,.LANCHOR0+8
 341      83B70700 
 342              		.loc 2 60 9
 343 01c8 63840702 		beqz	a5,.L14
  61:src/../h/list.hpp ****         {
  62:src/../h/list.hpp ****             tail->next = elem;
 344              		.loc 2 62 13
 345 01cc 23B4A700 		sd	a0,8(a5)
  63:src/../h/list.hpp ****             tail = elem;
 346              		.loc 2 63 13
 347 01d0 97070000 		sd	a0,.LANCHOR0+8,a5
 347      23B0A700 
 348              	.L15:
  64:src/../h/list.hpp ****         } else
  65:src/../h/list.hpp ****         {
  66:src/../h/list.hpp ****             head = tail = elem;
  67:src/../h/list.hpp ****         }
  68:src/../h/list.hpp ****         length++;
 349              		.loc 2 68 9
 350 01d8 17070000 		lla	a4,.LANCHOR0
 350      13070700 
 351 01e0 83270701 		lw	a5,16(a4)
 352 01e4 9B871700 		addiw	a5,a5,1
 353 01e8 2328F700 		sw	a5,16(a4)
 354              	.LVL30:
  69:src/../h/list.hpp ****     }
 355              		.loc 2 69 5
 356 01ec 6FF05FFA 		j	.L5
 357              	.LVL31:
 358              	.L14:
  66:src/../h/list.hpp ****         }
GAS LISTING /tmp/ccgJ1CJ6.s 			page 11


 359              		.loc 2 66 13
 360 01f0 97070000 		lla	a5,.LANCHOR0
 360      93870700 
 361 01f8 23B4A700 		sd	a0,8(a5)
 362 01fc 23B0A700 		sd	a0,0(a5)
 363 0200 6FF09FFD 		j	.L15
 364              	.LVL32:
 365              	.L17:
 366              		.cfi_def_cfa_register 2
 367              		.cfi_restore 1
 368              		.cfi_restore 8
 369              		.cfi_restore 9
 370              		.cfi_restore 18
 371              		.cfi_restore 19
 372 0204 67800000 		ret
 373              	.LBE99:
 374              	.LBE98:
 375              	.LBE112:
 376              	.LBE114:
 377              		.cfi_endproc
 378              	.LFE35:
 380              		.align	2
 381              		.globl	_ZN14SleepingThread4tickEv
 383              	_ZN14SleepingThread4tickEv:
 384              	.LFB36:
  52:src/sleepingthread.cpp ****     if(sleeping_threads.length==0){
 385              		.loc 1 52 29 is_stmt 1
 386              		.cfi_startproc
  53:src/sleepingthread.cpp ****         //ne merimo vreme - nema niti koje spavaju
 387              		.loc 1 53 5
  53:src/sleepingthread.cpp ****         //ne merimo vreme - nema niti koje spavaju
 388              		.loc 1 53 25 is_stmt 0
 389 0208 97070000 		lw	a5,.LANCHOR0+16
 389      83A70700 
  53:src/sleepingthread.cpp ****         //ne merimo vreme - nema niti koje spavaju
 390              		.loc 1 53 5
 391 0210 63980704 		bnez	a5,.L26
  55:src/sleepingthread.cpp ****     }
 392              		.loc 1 55 9 is_stmt 1
  55:src/sleepingthread.cpp ****     }
 393              		.loc 1 55 21 is_stmt 0
 394 0214 97070000 		sd	zero,.LANCHOR0+24,a5
 394      23B00700 
 395              	.L36:
  61:src/sleepingthread.cpp **** 
 396              		.loc 1 61 5 is_stmt 1
  61:src/sleepingthread.cpp **** 
 397              		.loc 1 61 34
  61:src/sleepingthread.cpp **** 
 398              		.loc 1 61 28 is_stmt 0
 399 021c 97070000 		lw	a5,.LANCHOR0+16
 399      83A70700 
  61:src/sleepingthread.cpp **** 
 400              		.loc 1 61 34
 401 0224 638E070E 		beqz	a5,.L37
  63:src/sleepingthread.cpp ****             TCB* thr=sleeping_threads.removeFirst();
 402              		.loc 1 63 9 is_stmt 1
GAS LISTING /tmp/ccgJ1CJ6.s 			page 12


 403              	.LVL33:
 404              	.LBB125:
 405              	.LBB126:
 406              	.LBB127:
  70:src/../h/list.hpp **** 
  71:src/../h/list.hpp ****     T *removeFirst()
  72:src/../h/list.hpp ****     {
  73:src/../h/list.hpp **** 
  74:src/../h/list.hpp ****         if (!head) { return 0; }
  75:src/../h/list.hpp ****         length--;
  76:src/../h/list.hpp ****         Elem *elem = head;
  77:src/../h/list.hpp ****         head = head->next;
  78:src/../h/list.hpp ****         if (!head) { tail = 0; }
  79:src/../h/list.hpp **** 
  80:src/../h/list.hpp ****         T *ret = elem->data;
  81:src/../h/list.hpp ****         delete elem;
  82:src/../h/list.hpp ****         return ret;
  83:src/../h/list.hpp ****     }
  84:src/../h/list.hpp **** 
  85:src/../h/list.hpp ****     T *peekFirst()
  86:src/../h/list.hpp ****     {
  87:src/../h/list.hpp ****         if (!head) { return 0; }
 407              		.loc 2 87 14 is_stmt 0
 408 0228 97070000 		ld	a5,.LANCHOR0
 408      83B70700 
 409              		.loc 2 87 9
 410 0230 63840700 		beqz	a5,.L39
  88:src/../h/list.hpp ****         return head->data;
 411              		.loc 2 88 22
 412 0234 83B70700 		ld	a5,0(a5)
 413              	.L39:
 414              	.LVL34:
 415              	.LBE127:
 416              	.LBE126:
  63:src/sleepingthread.cpp ****             TCB* thr=sleeping_threads.removeFirst();
 417              		.loc 1 63 58
 418 0238 03B70700 		ld	a4,0(a5)
  63:src/sleepingthread.cpp ****             TCB* thr=sleeping_threads.removeFirst();
 419              		.loc 1 63 25
 420 023c 97070000 		ld	a5,.LANCHOR0+24
 420      83B70700 
  63:src/sleepingthread.cpp ****             TCB* thr=sleeping_threads.removeFirst();
 421              		.loc 1 63 9
 422 0244 63EEE70C 		bgtu	a4,a5,.L37
 423              	.LBE125:
  52:src/sleepingthread.cpp ****     if(sleeping_threads.length==0){
 424              		.loc 1 52 29
 425 0248 130101FE 		addi	sp,sp,-32
 426              		.cfi_def_cfa_offset 32
 427 024c 233C1100 		sd	ra,24(sp)
 428 0250 23388100 		sd	s0,16(sp)
 429 0254 23349100 		sd	s1,8(sp)
 430              		.cfi_offset 1, -8
 431              		.cfi_offset 8, -16
 432              		.cfi_offset 9, -24
 433 0258 13040102 		addi	s0,sp,32
 434              		.cfi_def_cfa 8, 0
GAS LISTING /tmp/ccgJ1CJ6.s 			page 13


 435 025c 6F008006 		j	.L41
 436              	.L26:
 437              		.cfi_def_cfa_register 2
 438              		.cfi_restore 1
 439              		.cfi_restore 8
 440              		.cfi_restore 9
  58:src/sleepingthread.cpp ****     }
 441              		.loc 1 58 9 is_stmt 1
  58:src/sleepingthread.cpp ****     }
 442              		.loc 1 58 34 is_stmt 0
 443 0260 17070000 		lla	a4,.LANCHOR0
 443      13070700 
 444 0268 83378701 		ld	a5,24(a4)
 445 026c 93871700 		addi	a5,a5,1
  58:src/sleepingthread.cpp ****     }
 446              		.loc 1 58 21
 447 0270 233CF700 		sd	a5,24(a4)
 448 0274 6FF09FFA 		j	.L36
 449              	.LVL35:
 450              	.L44:
 451              		.cfi_def_cfa_register 8
 452              		.cfi_offset 1, -8
 453              		.cfi_offset 8, -16
 454              		.cfi_offset 9, -24
 455              	.LBB140:
 456              	.LBB129:
 457              	.LBB130:
 458              	.LBB131:
  78:src/../h/list.hpp **** 
 459              		.loc 2 78 22
 460 0278 97070000 		sd	zero,.LANCHOR0+8,a5
 460      23B00700 
 461              	.L31:
  80:src/../h/list.hpp ****         delete elem;
 462              		.loc 2 80 12
 463 0280 83340500 		ld	s1,0(a0)
 464              	.LVL36:
 465              	.LBB132:
 466              	.LBB133:
  19:src/../h/list.hpp ****         void operator delete[](void *p) {__mem_free(p);}
 467              		.loc 2 19 50
 468 0284 97000000 		call	__mem_free@plt
 468      E7800000 
 469              	.LVL37:
 470              	.L30:
 471              	.LBE133:
 472              	.LBE132:
 473              	.LBE131:
 474              	.LBE130:
  65:src/sleepingthread.cpp ****                 thr->prepare();
 475              		.loc 1 65 13 is_stmt 1
 476              	.LBB135:
 477              	.LBB136:
 478              		.file 3 "src/../h/tcb.hpp"
   1:src/../h/tcb.hpp **** #ifndef OS1_VEZBE07_RISCV_CONTEXT_SWITCH_2_INTERRUPT_TCB_HPP
   2:src/../h/tcb.hpp **** #define OS1_VEZBE07_RISCV_CONTEXT_SWITCH_2_INTERRUPT_TCB_HPP
   3:src/../h/tcb.hpp **** 
GAS LISTING /tmp/ccgJ1CJ6.s 			page 14


   4:src/../h/tcb.hpp **** #include "../lib/hw.h"
   5:src/../h/tcb.hpp **** #include "syscall_c.h"
   6:src/../h/tcb.hpp **** #include "scheduler.hpp"
   7:src/../h/tcb.hpp **** #include "list.hpp"
   8:src/../h/tcb.hpp **** 
   9:src/../h/tcb.hpp **** // Thread Control Block
  10:src/../h/tcb.hpp **** class TCB{
  11:src/../h/tcb.hpp **** public:
  12:src/../h/tcb.hpp ****     //---[NEW i DELETE]--------------------------------------------
  13:src/../h/tcb.hpp ****     void *operator new(size_t n){return __mem_alloc(n);}
  14:src/../h/tcb.hpp ****     void *operator new[](size_t n){return __mem_alloc(n);}
  15:src/../h/tcb.hpp ****     void operator delete(void *p) {__mem_free(p);}
  16:src/../h/tcb.hpp ****     void operator delete[](void *p) {__mem_free(p);}
  17:src/../h/tcb.hpp ****     //-------------------------------------------------------------
  18:src/../h/tcb.hpp ****     enum state {CREATED, READY, RUNNING, FINISHED, BLOCKED, SLEEPING, INACTIVE};
  19:src/../h/tcb.hpp **** 
  20:src/../h/tcb.hpp ****     ~TCB();
  21:src/../h/tcb.hpp **** 
  22:src/../h/tcb.hpp ****     bool isFinished() const {
  23:src/../h/tcb.hpp ****         if(current_state==FINISHED){
  24:src/../h/tcb.hpp ****             return true;
  25:src/../h/tcb.hpp ****         }
  26:src/../h/tcb.hpp ****         else return false;
  27:src/../h/tcb.hpp ****     }
  28:src/../h/tcb.hpp **** 
  29:src/../h/tcb.hpp ****     void setState(state my_state) {current_state=my_state; return;}
  30:src/../h/tcb.hpp ****     state getState() {return current_state;}
 479              		.loc 3 30 23
 480              		.loc 3 30 30 is_stmt 0
 481 028c 03A70403 		lw	a4,48(s1)
 482              	.LVL38:
 483              	.LBE136:
 484              	.LBE135:
  65:src/sleepingthread.cpp ****                 thr->prepare();
 485              		.loc 1 65 13
 486 0290 93075000 		li	a5,5
 487 0294 6304F706 		beq	a4,a5,.L43
 488              	.L32:
 489              	.LBE129:
 490              	.LBE140:
  61:src/sleepingthread.cpp **** 
 491              		.loc 1 61 5 is_stmt 1
  61:src/sleepingthread.cpp **** 
 492              		.loc 1 61 34
  61:src/sleepingthread.cpp **** 
 493              		.loc 1 61 28 is_stmt 0
 494 0298 97070000 		lw	a5,.LANCHOR0+16
 494      83A70700 
  61:src/sleepingthread.cpp **** 
 495              		.loc 1 61 34
 496 02a0 63860706 		beqz	a5,.L25
  63:src/sleepingthread.cpp ****             TCB* thr=sleeping_threads.removeFirst();
 497              		.loc 1 63 9 is_stmt 1
 498              	.LVL39:
 499              	.LBB141:
 500              	.LBB138:
 501              	.LBB128:
GAS LISTING /tmp/ccgJ1CJ6.s 			page 15


  87:src/../h/list.hpp ****         return head->data;
 502              		.loc 2 87 14 is_stmt 0
 503 02a4 97070000 		ld	a5,.LANCHOR0
 503      83B70700 
  87:src/../h/list.hpp ****         return head->data;
 504              		.loc 2 87 9
 505 02ac 63840700 		beqz	a5,.L29
 506              		.loc 2 88 22
 507 02b0 83B70700 		ld	a5,0(a5)
 508              	.L29:
 509              	.LVL40:
 510              	.LBE128:
 511              	.LBE138:
  63:src/sleepingthread.cpp ****             TCB* thr=sleeping_threads.removeFirst();
 512              		.loc 1 63 58
 513 02b4 03B70700 		ld	a4,0(a5)
  63:src/sleepingthread.cpp ****             TCB* thr=sleeping_threads.removeFirst();
 514              		.loc 1 63 25
 515 02b8 97070000 		ld	a5,.LANCHOR0+24
 515      83B70700 
  63:src/sleepingthread.cpp ****             TCB* thr=sleeping_threads.removeFirst();
 516              		.loc 1 63 9
 517 02c0 63E6E704 		bgtu	a4,a5,.L25
 518              	.LVL41:
 519              	.L41:
 520              	.LBB139:
  64:src/sleepingthread.cpp ****             if(thr->getState() == TCB::SLEEPING){
 521              		.loc 1 64 13 is_stmt 1
 522              	.LBB137:
 523              	.LBB134:
  74:src/../h/list.hpp ****         length--;
 524              		.loc 2 74 14 is_stmt 0
 525 02c4 17050000 		ld	a0,.LANCHOR0
 525      03350500 
  74:src/../h/list.hpp ****         length--;
 526              		.loc 2 74 9
 527 02cc 63040502 		beqz	a0,.L34
  75:src/../h/list.hpp ****         Elem *elem = head;
 528              		.loc 2 75 9
 529 02d0 97070000 		lla	a5,.LANCHOR0
 529      93870700 
 530 02d8 03A70701 		lw	a4,16(a5)
 531 02dc 1B07F7FF 		addiw	a4,a4,-1
 532 02e0 23A8E700 		sw	a4,16(a5)
 533              	.LVL42:
  77:src/../h/list.hpp ****         if (!head) { tail = 0; }
 534              		.loc 2 77 22
 535 02e4 03378500 		ld	a4,8(a0)
  77:src/../h/list.hpp ****         if (!head) { tail = 0; }
 536              		.loc 2 77 9
 537 02e8 23B0E700 		sd	a4,0(a5)
  78:src/../h/list.hpp **** 
 538              		.loc 2 78 9
 539 02ec E31A07F8 		bnez	a4,.L31
 540 02f0 6FF09FF8 		j	.L44
 541              	.LVL43:
 542              	.L34:
GAS LISTING /tmp/ccgJ1CJ6.s 			page 16


  74:src/../h/list.hpp ****         length--;
 543              		.loc 2 74 29
 544 02f4 93040500 		mv	s1,a0
 545 02f8 6FF05FF9 		j	.L30
 546              	.LVL44:
 547              	.L43:
 548              	.LBE134:
 549              	.LBE137:
  66:src/sleepingthread.cpp ****             }
 550              		.loc 1 66 17 is_stmt 1
  66:src/sleepingthread.cpp ****             }
 551              		.loc 1 66 29 is_stmt 0
 552 02fc 13850400 		mv	a0,s1
 553 0300 97000000 		call	_ZN3TCB7prepareEv@plt
 553      E7800000 
 554              	.LVL45:
 555 0308 6FF01FF9 		j	.L32
 556              	.L25:
 557              	.LBE139:
 558              	.LBE141:
 559              		.loc 1 73 1
 560 030c 83308101 		ld	ra,24(sp)
 561              		.cfi_restore 1
 562 0310 03340101 		ld	s0,16(sp)
 563              		.cfi_restore 8
 564              		.cfi_def_cfa 2, 32
 565 0314 83348100 		ld	s1,8(sp)
 566              		.cfi_restore 9
 567              	.LVL46:
 568 0318 13010102 		addi	sp,sp,32
 569              		.cfi_def_cfa_offset 0
 570 031c 67800000 		jr	ra
 571              	.L37:
 572 0320 67800000 		ret
 573              		.cfi_endproc
 574              	.LFE36:
 576              		.align	2
 578              	_GLOBAL__sub_I__ZN14SleepingThread16sleeping_threadsE:
 579              	.LFB51:
 580              		.loc 1 73 1 is_stmt 1
 581              		.cfi_startproc
 582 0324 130101FF 		addi	sp,sp,-16
 583              		.cfi_def_cfa_offset 16
 584 0328 23341100 		sd	ra,8(sp)
 585 032c 23308100 		sd	s0,0(sp)
 586              		.cfi_offset 1, -8
 587              		.cfi_offset 8, -16
 588 0330 13040101 		addi	s0,sp,16
 589              		.cfi_def_cfa 8, 0
 590              		.loc 1 73 1 is_stmt 0
 591 0334 B7050100 		li	a1,65536
 592 0338 9385F5FF 		addi	a1,a1,-1
 593 033c 13051000 		li	a0,1
 594 0340 97000000 		call	_Z41__static_initialization_and_destruction_0ii
 594      E7800000 
 595              	.LVL47:
 596 0348 83308100 		ld	ra,8(sp)
GAS LISTING /tmp/ccgJ1CJ6.s 			page 17


 597              		.cfi_restore 1
 598 034c 03340100 		ld	s0,0(sp)
 599              		.cfi_restore 8
 600              		.cfi_def_cfa 2, 16
 601 0350 13010101 		addi	sp,sp,16
 602              		.cfi_def_cfa_offset 0
 603 0354 67800000 		jr	ra
 604              		.cfi_endproc
 605              	.LFE51:
 607              		.section	.init_array,"aw"
 608              		.align	3
 609 0000 00000000 		.dword	_GLOBAL__sub_I__ZN14SleepingThread16sleeping_threadsE
 609      00000000 
 610              		.globl	_ZN14SleepingThread12time_elapsedE
 611              		.globl	_ZN14SleepingThread16sleeping_threadsE
 612              		.bss
 613              		.align	3
 614              		.set	.LANCHOR0,. + 0
 617              	_ZN14SleepingThread16sleeping_threadsE:
 618 0000 00000000 		.zero	24
 618      00000000 
 618      00000000 
 618      00000000 
 618      00000000 
 621              	_ZN14SleepingThread12time_elapsedE:
 622 0018 00000000 		.zero	8
 622      00000000 
 623              		.text
 624              	.Letext0:
 625              		.file 4 "src/../h/../lib/hw.h"
 626              		.file 5 "src/../h/sleepingthread.hpp"
 627              		.file 6 "src/../h/syscall_c.h"
 628              		.file 7 "src/../h/../lib/mem.h"
GAS LISTING /tmp/ccgJ1CJ6.s 			page 18


DEFINED SYMBOLS
                            *ABS*:0000000000000000 sleepingthread.cpp
     /tmp/ccgJ1CJ6.s:8      .text:0000000000000000 _Z41__static_initialization_and_destruction_0ii
     /tmp/ccgJ1CJ6.s:12     .text:0000000000000000 .L0 
     /tmp/ccgJ1CJ6.s:14     .text:0000000000000000 .L0 
     /tmp/ccgJ1CJ6.s:15     .text:0000000000000004 .L0 
     /tmp/ccgJ1CJ6.s:17     .text:0000000000000008 .L0 
     /tmp/ccgJ1CJ6.s:19     .text:000000000000000c .L0 
     /tmp/ccgJ1CJ6.s:21     .text:000000000000000c .L0 
     /tmp/ccgJ1CJ6.s:25     .text:0000000000000018 .L0 
     /tmp/ccgJ1CJ6.s:26     .text:0000000000000018 .L0 
     /tmp/ccgJ1CJ6.s:27     .text:0000000000000018 .L0 
     /tmp/ccgJ1CJ6.s:29     .text:000000000000001c .L0 
     /tmp/ccgJ1CJ6.s:32     .text:0000000000000020 .L0 
     /tmp/ccgJ1CJ6.s:34     .text:0000000000000020 .L0 
     /tmp/ccgJ1CJ6.s:43     .text:000000000000002c .L0 
     /tmp/ccgJ1CJ6.s:52     .text:0000000000000040 .L0 
     /tmp/ccgJ1CJ6.s:53     .text:0000000000000044 .L0 
     /tmp/ccgJ1CJ6.s:59     .text:0000000000000044 _ZN14SleepingThread8go_sleepEP3TCBm
     /tmp/ccgJ1CJ6.s:62     .text:0000000000000044 .L0 
     /tmp/ccgJ1CJ6.s:64     .text:0000000000000044 .L0 
     /tmp/ccgJ1CJ6.s:65     .text:0000000000000044 .L0 
     /tmp/ccgJ1CJ6.s:67     .text:0000000000000048 .L0 
     /tmp/ccgJ1CJ6.s:68     .text:000000000000004c .L0 
     /tmp/ccgJ1CJ6.s:74     .text:0000000000000060 .L0 
     /tmp/ccgJ1CJ6.s:75     .text:0000000000000060 .L0 
     /tmp/ccgJ1CJ6.s:76     .text:0000000000000060 .L0 
     /tmp/ccgJ1CJ6.s:77     .text:0000000000000060 .L0 
     /tmp/ccgJ1CJ6.s:78     .text:0000000000000060 .L0 
     /tmp/ccgJ1CJ6.s:80     .text:0000000000000064 .L0 
     /tmp/ccgJ1CJ6.s:83     .text:0000000000000068 .L0 
     /tmp/ccgJ1CJ6.s:84     .text:0000000000000068 .L0 
     /tmp/ccgJ1CJ6.s:89     .text:0000000000000078 .L0 
     /tmp/ccgJ1CJ6.s:95     .text:000000000000007c .L0 
     /tmp/ccgJ1CJ6.s:96     .text:000000000000007c .L0 
     /tmp/ccgJ1CJ6.s:101    .text:0000000000000080 .L0 
     /tmp/ccgJ1CJ6.s:104    .text:0000000000000084 .L0 
     /tmp/ccgJ1CJ6.s:105    .text:0000000000000084 .L0 
     /tmp/ccgJ1CJ6.s:108    .text:000000000000008c .L0 
     /tmp/ccgJ1CJ6.s:109    .text:000000000000008c .L0 
     /tmp/ccgJ1CJ6.s:110    .text:000000000000008c .L0 
     /tmp/ccgJ1CJ6.s:112    .text:0000000000000090 .L0 
     /tmp/ccgJ1CJ6.s:122    .text:0000000000000098 .L0 
     /tmp/ccgJ1CJ6.s:123    .text:0000000000000098 .L0 
     /tmp/ccgJ1CJ6.s:130    .text:00000000000000a4 .L0 
     /tmp/ccgJ1CJ6.s:136    .text:00000000000000b0 .L0 
     /tmp/ccgJ1CJ6.s:142    .text:00000000000000b8 .L0 
     /tmp/ccgJ1CJ6.s:144    .text:00000000000000bc .L0 
     /tmp/ccgJ1CJ6.s:146    .text:00000000000000c0 .L0 
     /tmp/ccgJ1CJ6.s:149    .text:00000000000000c4 .L0 
     /tmp/ccgJ1CJ6.s:154    .text:00000000000000d8 .L0 
     /tmp/ccgJ1CJ6.s:157    .text:00000000000000dc .L0 
     /tmp/ccgJ1CJ6.s:172    .text:00000000000000e8 .L0 
     /tmp/ccgJ1CJ6.s:173    .text:00000000000000e8 .L0 
     /tmp/ccgJ1CJ6.s:179    .text:00000000000000f4 .L0 
     /tmp/ccgJ1CJ6.s:185    .text:0000000000000100 .L0 
     /tmp/ccgJ1CJ6.s:191    .text:0000000000000108 .L0 
GAS LISTING /tmp/ccgJ1CJ6.s 			page 19


     /tmp/ccgJ1CJ6.s:193    .text:000000000000010c .L0 
     /tmp/ccgJ1CJ6.s:195    .text:0000000000000110 .L0 
     /tmp/ccgJ1CJ6.s:198    .text:0000000000000114 .L0 
     /tmp/ccgJ1CJ6.s:205    .text:0000000000000128 .L0 
     /tmp/ccgJ1CJ6.s:211    .text:000000000000012c .L0 
     /tmp/ccgJ1CJ6.s:212    .text:000000000000012c .L0 
     /tmp/ccgJ1CJ6.s:213    .text:000000000000012c .L0 
     /tmp/ccgJ1CJ6.s:215    .text:0000000000000130 .L0 
     /tmp/ccgJ1CJ6.s:220    .text:0000000000000134 .L0 
     /tmp/ccgJ1CJ6.s:221    .text:0000000000000134 .L0 
     /tmp/ccgJ1CJ6.s:225    .text:0000000000000138 .L0 
     /tmp/ccgJ1CJ6.s:226    .text:0000000000000138 .L0 
     /tmp/ccgJ1CJ6.s:228    .text:000000000000013c .L0 
     /tmp/ccgJ1CJ6.s:230    .text:0000000000000140 .L0 
     /tmp/ccgJ1CJ6.s:232    .text:0000000000000144 .L0 
     /tmp/ccgJ1CJ6.s:243    .text:0000000000000148 .L0 
     /tmp/ccgJ1CJ6.s:249    .text:000000000000014c .L0 
     /tmp/ccgJ1CJ6.s:250    .text:000000000000014c .L0 
     /tmp/ccgJ1CJ6.s:258    .text:0000000000000158 .L0 
     /tmp/ccgJ1CJ6.s:264    .text:0000000000000160 .L0 
     /tmp/ccgJ1CJ6.s:265    .text:0000000000000160 .L0 
     /tmp/ccgJ1CJ6.s:267    .text:0000000000000164 .L0 
     /tmp/ccgJ1CJ6.s:268    .text:0000000000000164 .L0 
     /tmp/ccgJ1CJ6.s:271    .text:0000000000000170 .L0 
     /tmp/ccgJ1CJ6.s:275    .text:0000000000000178 .L0 
     /tmp/ccgJ1CJ6.s:276    .text:0000000000000178 .L0 
     /tmp/ccgJ1CJ6.s:284    .text:0000000000000180 .L0 
     /tmp/ccgJ1CJ6.s:294    .text:000000000000018c .L0 
     /tmp/ccgJ1CJ6.s:300    .text:0000000000000190 .L0 
     /tmp/ccgJ1CJ6.s:301    .text:0000000000000194 .L0 
     /tmp/ccgJ1CJ6.s:302    .text:0000000000000194 .L0 
     /tmp/ccgJ1CJ6.s:304    .text:0000000000000198 .L0 
     /tmp/ccgJ1CJ6.s:305    .text:0000000000000198 .L0 
     /tmp/ccgJ1CJ6.s:307    .text:000000000000019c .L0 
     /tmp/ccgJ1CJ6.s:309    .text:00000000000001a0 .L0 
     /tmp/ccgJ1CJ6.s:312    .text:00000000000001a4 .L0 
     /tmp/ccgJ1CJ6.s:314    .text:00000000000001a8 .L0 
     /tmp/ccgJ1CJ6.s:318    .text:00000000000001ac .L0 
     /tmp/ccgJ1CJ6.s:326    .text:00000000000001ac .L0 
     /tmp/ccgJ1CJ6.s:327    .text:00000000000001ac .L0 
     /tmp/ccgJ1CJ6.s:335    .text:00000000000001b8 .L0 
     /tmp/ccgJ1CJ6.s:341    .text:00000000000001c0 .L0 
     /tmp/ccgJ1CJ6.s:343    .text:00000000000001c8 .L0 
     /tmp/ccgJ1CJ6.s:345    .text:00000000000001cc .L0 
     /tmp/ccgJ1CJ6.s:347    .text:00000000000001d0 .L0 
     /tmp/ccgJ1CJ6.s:350    .text:00000000000001d8 .L0 
     /tmp/ccgJ1CJ6.s:356    .text:00000000000001ec .L0 
     /tmp/ccgJ1CJ6.s:360    .text:00000000000001f0 .L0 
     /tmp/ccgJ1CJ6.s:366    .text:0000000000000204 .L0 
     /tmp/ccgJ1CJ6.s:367    .text:0000000000000204 .L0 
     /tmp/ccgJ1CJ6.s:368    .text:0000000000000204 .L0 
     /tmp/ccgJ1CJ6.s:369    .text:0000000000000204 .L0 
     /tmp/ccgJ1CJ6.s:370    .text:0000000000000204 .L0 
     /tmp/ccgJ1CJ6.s:371    .text:0000000000000204 .L0 
     /tmp/ccgJ1CJ6.s:377    .text:0000000000000208 .L0 
     /tmp/ccgJ1CJ6.s:383    .text:0000000000000208 _ZN14SleepingThread4tickEv
     /tmp/ccgJ1CJ6.s:386    .text:0000000000000208 .L0 
GAS LISTING /tmp/ccgJ1CJ6.s 			page 20


     /tmp/ccgJ1CJ6.s:387    .text:0000000000000208 .L0 
     /tmp/ccgJ1CJ6.s:388    .text:0000000000000208 .L0 
     /tmp/ccgJ1CJ6.s:389    .text:0000000000000208 .L0 
     /tmp/ccgJ1CJ6.s:391    .text:0000000000000210 .L0 
     /tmp/ccgJ1CJ6.s:393    .text:0000000000000214 .L0 
     /tmp/ccgJ1CJ6.s:394    .text:0000000000000214 .L0 
     /tmp/ccgJ1CJ6.s:397    .text:000000000000021c .L0 
     /tmp/ccgJ1CJ6.s:398    .text:000000000000021c .L0 
     /tmp/ccgJ1CJ6.s:399    .text:000000000000021c .L0 
     /tmp/ccgJ1CJ6.s:401    .text:0000000000000224 .L0 
     /tmp/ccgJ1CJ6.s:407    .text:0000000000000228 .L0 
     /tmp/ccgJ1CJ6.s:408    .text:0000000000000228 .L0 
     /tmp/ccgJ1CJ6.s:410    .text:0000000000000230 .L0 
     /tmp/ccgJ1CJ6.s:412    .text:0000000000000234 .L0 
     /tmp/ccgJ1CJ6.s:418    .text:0000000000000238 .L0 
     /tmp/ccgJ1CJ6.s:420    .text:000000000000023c .L0 
     /tmp/ccgJ1CJ6.s:422    .text:0000000000000244 .L0 
     /tmp/ccgJ1CJ6.s:425    .text:0000000000000248 .L0 
     /tmp/ccgJ1CJ6.s:426    .text:000000000000024c .L0 
     /tmp/ccgJ1CJ6.s:430    .text:0000000000000258 .L0 
     /tmp/ccgJ1CJ6.s:431    .text:0000000000000258 .L0 
     /tmp/ccgJ1CJ6.s:432    .text:0000000000000258 .L0 
     /tmp/ccgJ1CJ6.s:434    .text:000000000000025c .L0 
     /tmp/ccgJ1CJ6.s:437    .text:0000000000000260 .L0 
     /tmp/ccgJ1CJ6.s:438    .text:0000000000000260 .L0 
     /tmp/ccgJ1CJ6.s:439    .text:0000000000000260 .L0 
     /tmp/ccgJ1CJ6.s:440    .text:0000000000000260 .L0 
     /tmp/ccgJ1CJ6.s:442    .text:0000000000000260 .L0 
     /tmp/ccgJ1CJ6.s:443    .text:0000000000000260 .L0 
     /tmp/ccgJ1CJ6.s:447    .text:0000000000000270 .L0 
     /tmp/ccgJ1CJ6.s:451    .text:0000000000000278 .L0 
     /tmp/ccgJ1CJ6.s:452    .text:0000000000000278 .L0 
     /tmp/ccgJ1CJ6.s:453    .text:0000000000000278 .L0 
     /tmp/ccgJ1CJ6.s:454    .text:0000000000000278 .L0 
     /tmp/ccgJ1CJ6.s:460    .text:0000000000000278 .L0 
     /tmp/ccgJ1CJ6.s:463    .text:0000000000000280 .L0 
     /tmp/ccgJ1CJ6.s:468    .text:0000000000000284 .L0 
     /tmp/ccgJ1CJ6.s:479    .text:000000000000028c .L0 
     /tmp/ccgJ1CJ6.s:480    .text:000000000000028c .L0 
     /tmp/ccgJ1CJ6.s:481    .text:000000000000028c .L0 
     /tmp/ccgJ1CJ6.s:486    .text:0000000000000290 .L0 
     /tmp/ccgJ1CJ6.s:492    .text:0000000000000298 .L0 
     /tmp/ccgJ1CJ6.s:493    .text:0000000000000298 .L0 
     /tmp/ccgJ1CJ6.s:494    .text:0000000000000298 .L0 
     /tmp/ccgJ1CJ6.s:496    .text:00000000000002a0 .L0 
     /tmp/ccgJ1CJ6.s:502    .text:00000000000002a4 .L0 
     /tmp/ccgJ1CJ6.s:503    .text:00000000000002a4 .L0 
     /tmp/ccgJ1CJ6.s:505    .text:00000000000002ac .L0 
     /tmp/ccgJ1CJ6.s:507    .text:00000000000002b0 .L0 
     /tmp/ccgJ1CJ6.s:513    .text:00000000000002b4 .L0 
     /tmp/ccgJ1CJ6.s:515    .text:00000000000002b8 .L0 
     /tmp/ccgJ1CJ6.s:517    .text:00000000000002c0 .L0 
     /tmp/ccgJ1CJ6.s:524    .text:00000000000002c4 .L0 
     /tmp/ccgJ1CJ6.s:525    .text:00000000000002c4 .L0 
     /tmp/ccgJ1CJ6.s:527    .text:00000000000002cc .L0 
     /tmp/ccgJ1CJ6.s:529    .text:00000000000002d0 .L0 
     /tmp/ccgJ1CJ6.s:535    .text:00000000000002e4 .L0 
GAS LISTING /tmp/ccgJ1CJ6.s 			page 21


     /tmp/ccgJ1CJ6.s:537    .text:00000000000002e8 .L0 
     /tmp/ccgJ1CJ6.s:539    .text:00000000000002ec .L0 
     /tmp/ccgJ1CJ6.s:544    .text:00000000000002f4 .L0 
     /tmp/ccgJ1CJ6.s:551    .text:00000000000002fc .L0 
     /tmp/ccgJ1CJ6.s:552    .text:00000000000002fc .L0 
     /tmp/ccgJ1CJ6.s:560    .text:000000000000030c .L0 
     /tmp/ccgJ1CJ6.s:561    .text:0000000000000310 .L0 
     /tmp/ccgJ1CJ6.s:563    .text:0000000000000314 .L0 
     /tmp/ccgJ1CJ6.s:564    .text:0000000000000314 .L0 
     /tmp/ccgJ1CJ6.s:566    .text:0000000000000318 .L0 
     /tmp/ccgJ1CJ6.s:569    .text:000000000000031c .L0 
     /tmp/ccgJ1CJ6.s:573    .text:0000000000000324 .L0 
     /tmp/ccgJ1CJ6.s:578    .text:0000000000000324 _GLOBAL__sub_I__ZN14SleepingThread16sleeping_threadsE
     /tmp/ccgJ1CJ6.s:581    .text:0000000000000324 .L0 
     /tmp/ccgJ1CJ6.s:582    .text:0000000000000324 .L0 
     /tmp/ccgJ1CJ6.s:583    .text:0000000000000328 .L0 
     /tmp/ccgJ1CJ6.s:586    .text:0000000000000330 .L0 
     /tmp/ccgJ1CJ6.s:587    .text:0000000000000330 .L0 
     /tmp/ccgJ1CJ6.s:589    .text:0000000000000334 .L0 
     /tmp/ccgJ1CJ6.s:591    .text:0000000000000334 .L0 
     /tmp/ccgJ1CJ6.s:597    .text:000000000000034c .L0 
     /tmp/ccgJ1CJ6.s:599    .text:0000000000000350 .L0 
     /tmp/ccgJ1CJ6.s:600    .text:0000000000000350 .L0 
     /tmp/ccgJ1CJ6.s:602    .text:0000000000000354 .L0 
     /tmp/ccgJ1CJ6.s:604    .text:0000000000000358 .L0 
     /tmp/ccgJ1CJ6.s:621    .bss:0000000000000018 _ZN14SleepingThread12time_elapsedE
     /tmp/ccgJ1CJ6.s:617    .bss:0000000000000000 _ZN14SleepingThread16sleeping_threadsE
     /tmp/ccgJ1CJ6.s:614    .bss:0000000000000000 .LANCHOR0
     /tmp/ccgJ1CJ6.s:629    .text:0000000000000358 .L0 
     /tmp/ccgJ1CJ6.s:43     .text:000000000000002c .L0 
     /tmp/ccgJ1CJ6.s:84     .text:0000000000000068 .L0 
     /tmp/ccgJ1CJ6.s:105    .text:0000000000000084 .L0 
     /tmp/ccgJ1CJ6.s:130    .text:00000000000000a4 .L0 
     /tmp/ccgJ1CJ6.s:149    .text:00000000000000c4 .L0 
     /tmp/ccgJ1CJ6.s:157    .text:00000000000000dc .L0 
     /tmp/ccgJ1CJ6.s:179    .text:00000000000000f4 .L0 
     /tmp/ccgJ1CJ6.s:198    .text:0000000000000114 .L0 
     /tmp/ccgJ1CJ6.s:268    .text:0000000000000164 .L0 
     /tmp/ccgJ1CJ6.s:284    .text:0000000000000180 .L0 
     /tmp/ccgJ1CJ6.s:341    .text:00000000000001c0 .L0 
     /tmp/ccgJ1CJ6.s:347    .text:00000000000001d0 .L0 
     /tmp/ccgJ1CJ6.s:350    .text:00000000000001d8 .L0 
     /tmp/ccgJ1CJ6.s:360    .text:00000000000001f0 .L0 
     /tmp/ccgJ1CJ6.s:389    .text:0000000000000208 .L0 
     /tmp/ccgJ1CJ6.s:394    .text:0000000000000214 .L0 
     /tmp/ccgJ1CJ6.s:399    .text:000000000000021c .L0 
     /tmp/ccgJ1CJ6.s:408    .text:0000000000000228 .L0 
     /tmp/ccgJ1CJ6.s:420    .text:000000000000023c .L0 
     /tmp/ccgJ1CJ6.s:443    .text:0000000000000260 .L0 
     /tmp/ccgJ1CJ6.s:460    .text:0000000000000278 .L0 
     /tmp/ccgJ1CJ6.s:494    .text:0000000000000298 .L0 
     /tmp/ccgJ1CJ6.s:503    .text:00000000000002a4 .L0 
     /tmp/ccgJ1CJ6.s:515    .text:00000000000002b8 .L0 
     /tmp/ccgJ1CJ6.s:525    .text:00000000000002c4 .L0 
     /tmp/ccgJ1CJ6.s:529    .text:00000000000002d0 .L0 
     /tmp/ccgJ1CJ6.s:31     .text:0000000000000020 .L4
     /tmp/ccgJ1CJ6.s:23     .text:0000000000000014 .L1
GAS LISTING /tmp/ccgJ1CJ6.s 			page 22


     /tmp/ccgJ1CJ6.s:365    .text:0000000000000204 .L17
     /tmp/ccgJ1CJ6.s:115    .text:0000000000000098 .L20
     /tmp/ccgJ1CJ6.s:217    .text:0000000000000134 .L13
     /tmp/ccgJ1CJ6.s:155    .text:00000000000000dc .L21
     /tmp/ccgJ1CJ6.s:296    .text:0000000000000190 .L5
     /tmp/ccgJ1CJ6.s:147    .text:00000000000000c4 .L8
     /tmp/ccgJ1CJ6.s:279    .text:0000000000000180 .L22
     /tmp/ccgJ1CJ6.s:287    .text:000000000000018c .L9
     /tmp/ccgJ1CJ6.s:207    .text:000000000000012c .L10
     /tmp/ccgJ1CJ6.s:160    .text:00000000000000e8 .L23
     /tmp/ccgJ1CJ6.s:196    .text:0000000000000114 .L12
     /tmp/ccgJ1CJ6.s:317    .text:00000000000001ac .L24
     /tmp/ccgJ1CJ6.s:358    .text:00000000000001f0 .L14
     /tmp/ccgJ1CJ6.s:348    .text:00000000000001d8 .L15
     /tmp/ccgJ1CJ6.s:436    .text:0000000000000260 .L26
     /tmp/ccgJ1CJ6.s:571    .text:0000000000000320 .L37
     /tmp/ccgJ1CJ6.s:413    .text:0000000000000238 .L39
     /tmp/ccgJ1CJ6.s:519    .text:00000000000002c4 .L41
     /tmp/ccgJ1CJ6.s:395    .text:000000000000021c .L36
     /tmp/ccgJ1CJ6.s:547    .text:00000000000002fc .L43
     /tmp/ccgJ1CJ6.s:556    .text:000000000000030c .L25
     /tmp/ccgJ1CJ6.s:508    .text:00000000000002b4 .L29
     /tmp/ccgJ1CJ6.s:542    .text:00000000000002f4 .L34
     /tmp/ccgJ1CJ6.s:461    .text:0000000000000280 .L31
     /tmp/ccgJ1CJ6.s:450    .text:0000000000000278 .L44
     /tmp/ccgJ1CJ6.s:470    .text:000000000000028c .L30
     /tmp/ccgJ1CJ6.s:488    .text:0000000000000298 .L32
     /tmp/ccgJ1CJ6.s:2301   .debug_abbrev:0000000000000000 .Ldebug_abbrev0
     /tmp/ccgJ1CJ6.s:4289   .debug_str:0000000000000875 .LASF153
     /tmp/ccgJ1CJ6.s:4207   .debug_str:00000000000005b6 .LASF154
     /tmp/ccgJ1CJ6.s:4263   .debug_str:000000000000077b .LASF155
     /tmp/ccgJ1CJ6.s:5      .text:0000000000000000 .Ltext0
     /tmp/ccgJ1CJ6.s:624    .text:0000000000000358 .Letext0
     /tmp/ccgJ1CJ6.s:4011   .debug_line:0000000000000000 .Ldebug_line0
     /tmp/ccgJ1CJ6.s:4199   .debug_str:000000000000058f .LASF0
     /tmp/ccgJ1CJ6.s:4219   .debug_str:0000000000000638 .LASF1
     /tmp/ccgJ1CJ6.s:4179   .debug_str:0000000000000507 .LASF2
     /tmp/ccgJ1CJ6.s:4141   .debug_str:0000000000000436 .LASF4
     /tmp/ccgJ1CJ6.s:4267   .debug_str:00000000000007a9 .LASF3
     /tmp/ccgJ1CJ6.s:4033   .debug_str:00000000000000b3 .LASF5
     /tmp/ccgJ1CJ6.s:4083   .debug_str:0000000000000256 .LASF6
     /tmp/ccgJ1CJ6.s:4221   .debug_str:000000000000064b .LASF7
     /tmp/ccgJ1CJ6.s:4197   .debug_str:000000000000057c .LASF8
     /tmp/ccgJ1CJ6.s:4303   .debug_str:000000000000099c .LASF9
     /tmp/ccgJ1CJ6.s:4123   .debug_str:000000000000039e .LASF10
     /tmp/ccgJ1CJ6.s:4237   .debug_str:00000000000006d2 .LASF11
     /tmp/ccgJ1CJ6.s:4293   .debug_str:0000000000000941 .LASF12
     /tmp/ccgJ1CJ6.s:4039   .debug_str:00000000000000d2 .LASF13
     /tmp/ccgJ1CJ6.s:4015   .debug_str:000000000000001e .LASF14
     /tmp/ccgJ1CJ6.s:4059   .debug_str:000000000000019d .LASF15
     /tmp/ccgJ1CJ6.s:4257   .debug_str:0000000000000755 .LASF16
     /tmp/ccgJ1CJ6.s:4075   .debug_str:000000000000021c .LASF17
     /tmp/ccgJ1CJ6.s:4029   .debug_str:0000000000000094 .LASF156
     /tmp/ccgJ1CJ6.s:4291   .debug_str:0000000000000939 .LASF18
     /tmp/ccgJ1CJ6.s:4235   .debug_str:00000000000006cc .LASF19
     /tmp/ccgJ1CJ6.s:4227   .debug_str:0000000000000670 .LASF20
     /tmp/ccgJ1CJ6.s:4275   .debug_str:00000000000007fa .LASF21
GAS LISTING /tmp/ccgJ1CJ6.s 			page 23


     /tmp/ccgJ1CJ6.s:4143   .debug_str:000000000000043d .LASF22
     /tmp/ccgJ1CJ6.s:4019   .debug_str:0000000000000036 .LASF23
     /tmp/ccgJ1CJ6.s:4241   .debug_str:00000000000006fa .LASF24
     /tmp/ccgJ1CJ6.s:4017   .debug_str:000000000000002e .LASF157
     /tmp/ccgJ1CJ6.s:4315   .debug_str:0000000000000a1c .LASF25
     /tmp/ccgJ1CJ6.s:4281   .debug_str:0000000000000832 .LASF27
     /tmp/ccgJ1CJ6.s:4117   .debug_str:000000000000036e .LASF26
     /tmp/ccgJ1CJ6.s:4127   .debug_str:00000000000003be .LASF28
     /tmp/ccgJ1CJ6.s:4091   .debug_str:00000000000002a5 .LASF29
     /tmp/ccgJ1CJ6.s:4253   .debug_str:0000000000000731 .LASF31
     /tmp/ccgJ1CJ6.s:4279   .debug_str:000000000000081f .LASF30
     /tmp/ccgJ1CJ6.s:4053   .debug_str:0000000000000158 .LASF32
     /tmp/ccgJ1CJ6.s:4135   .debug_str:0000000000000404 .LASF33
     /tmp/ccgJ1CJ6.s:4247   .debug_str:000000000000071b .LASF34
     /tmp/ccgJ1CJ6.s:4223   .debug_str:000000000000065e .LASF37
     /tmp/ccgJ1CJ6.s:4121   .debug_str:0000000000000387 .LASF39
     /tmp/ccgJ1CJ6.s:4189   .debug_str:0000000000000545 .LASF35
     /tmp/ccgJ1CJ6.s:4099   .debug_str:00000000000002dc .LASF36
     /tmp/ccgJ1CJ6.s:4151   .debug_str:000000000000045d .LASF38
     /tmp/ccgJ1CJ6.s:4111   .debug_str:0000000000000347 .LASF40
     /tmp/ccgJ1CJ6.s:4167   .debug_str:00000000000004c3 .LASF41
     /tmp/ccgJ1CJ6.s:4031   .debug_str:000000000000009a .LASF42
     /tmp/ccgJ1CJ6.s:4177   .debug_str:00000000000004fc .LASF43
     /tmp/ccgJ1CJ6.s:4299   .debug_str:0000000000000973 .LASF45
     /tmp/ccgJ1CJ6.s:4045   .debug_str:0000000000000118 .LASF44
     /tmp/ccgJ1CJ6.s:4323   .debug_str:0000000000000a5b .LASF46
     /tmp/ccgJ1CJ6.s:4023   .debug_str:0000000000000057 .LASF47
     /tmp/ccgJ1CJ6.s:4295   .debug_str:0000000000000950 .LASF48
     /tmp/ccgJ1CJ6.s:4231   .debug_str:0000000000000687 .LASF49
     /tmp/ccgJ1CJ6.s:4181   .debug_str:0000000000000515 .LASF50
     /tmp/ccgJ1CJ6.s:4319   .debug_str:0000000000000a39 .LASF51
     /tmp/ccgJ1CJ6.s:4081   .debug_str:000000000000024f .LASF52
     /tmp/ccgJ1CJ6.s:4217   .debug_str:000000000000062a .LASF62
     /tmp/ccgJ1CJ6.s:4271   .debug_str:00000000000007cc .LASF53
     /tmp/ccgJ1CJ6.s:4249   .debug_str:0000000000000727 .LASF158
     /tmp/ccgJ1CJ6.s:4215   .debug_str:0000000000000613 .LASF54
     /tmp/ccgJ1CJ6.s:4147   .debug_str:0000000000000450 .LASF55
     /tmp/ccgJ1CJ6.s:4203   .debug_str:00000000000005a5 .LASF56
     /tmp/ccgJ1CJ6.s:4149   .debug_str:0000000000000455 .LASF57
     /tmp/ccgJ1CJ6.s:4025   .debug_str:0000000000000069 .LASF58
     /tmp/ccgJ1CJ6.s:4209   .debug_str:00000000000005cd .LASF59
     /tmp/ccgJ1CJ6.s:4307   .debug_str:00000000000009d3 .LASF60
     /tmp/ccgJ1CJ6.s:4313   .debug_str:0000000000000a16 .LASF61
     /tmp/ccgJ1CJ6.s:4329   .debug_str:0000000000000aaa .LASF63
     /tmp/ccgJ1CJ6.s:4085   .debug_str:000000000000025d .LASF64
     /tmp/ccgJ1CJ6.s:4171   .debug_str:00000000000004e3 .LASF71
     /tmp/ccgJ1CJ6.s:4133   .debug_str:00000000000003eb .LASF73
     /tmp/ccgJ1CJ6.s:4317   .debug_str:0000000000000a29 .LASF65
     /tmp/ccgJ1CJ6.s:4277   .debug_str:0000000000000803 .LASF67
     /tmp/ccgJ1CJ6.s:4283   .debug_str:000000000000083e .LASF66
     /tmp/ccgJ1CJ6.s:4103   .debug_str:0000000000000304 .LASF68
     /tmp/ccgJ1CJ6.s:4311   .debug_str:0000000000000a08 .LASF69
     /tmp/ccgJ1CJ6.s:4137   .debug_str:0000000000000409 .LASF70
     /tmp/ccgJ1CJ6.s:4201   .debug_str:000000000000059c .LASF72
     /tmp/ccgJ1CJ6.s:4169   .debug_str:00000000000004d0 .LASF74
     /tmp/ccgJ1CJ6.s:4269   .debug_str:00000000000007bb .LASF75
     /tmp/ccgJ1CJ6.s:4073   .debug_str:0000000000000214 .LASF76
GAS LISTING /tmp/ccgJ1CJ6.s 			page 24


     /tmp/ccgJ1CJ6.s:4109   .debug_str:0000000000000335 .LASF77
     /tmp/ccgJ1CJ6.s:4163   .debug_str:00000000000004b9 .LASF78
     /tmp/ccgJ1CJ6.s:4047   .debug_str:000000000000012b .LASF80
     /tmp/ccgJ1CJ6.s:4095   .debug_str:00000000000002c6 .LASF79
     /tmp/ccgJ1CJ6.s:4097   .debug_str:00000000000002cc .LASF81
     /tmp/ccgJ1CJ6.s:4035   .debug_str:00000000000000ba .LASF82
     /tmp/ccgJ1CJ6.s:4125   .debug_str:00000000000003ac .LASF83
     /tmp/ccgJ1CJ6.s:4333   .debug_str:0000000000000ace .LASF84
     /tmp/ccgJ1CJ6.s:4183   .debug_str:0000000000000528 .LASF85
     /tmp/ccgJ1CJ6.s:4331   .debug_str:0000000000000ab6 .LASF86
     /tmp/ccgJ1CJ6.s:4069   .debug_str:00000000000001ec .LASF87
     /tmp/ccgJ1CJ6.s:4175   .debug_str:00000000000004f6 .LASF88
     /tmp/ccgJ1CJ6.s:4037   .debug_str:00000000000000c2 .LASF89
     /tmp/ccgJ1CJ6.s:4051   .debug_str:000000000000014e .LASF90
     /tmp/ccgJ1CJ6.s:4165   .debug_str:00000000000004be .LASF97
     /tmp/ccgJ1CJ6.s:4079   .debug_str:0000000000000237 .LASF91
     /tmp/ccgJ1CJ6.s:4041   .debug_str:00000000000000e2 .LASF92
     /tmp/ccgJ1CJ6.s:4239   .debug_str:00000000000006e1 .LASF93
     /tmp/ccgJ1CJ6.s:4211   .debug_str:00000000000005d7 .LASF94
     /tmp/ccgJ1CJ6.s:4251   .debug_str:000000000000072c .LASF95
     /tmp/ccgJ1CJ6.s:4067   .debug_str:00000000000001e7 .LASF96
     /tmp/ccgJ1CJ6.s:4191   .debug_str:000000000000054e .LASF98
     /tmp/ccgJ1CJ6.s:4077   .debug_str:0000000000000232 .LASF99
     /tmp/ccgJ1CJ6.s:4195   .debug_str:0000000000000577 .LASF100
     /tmp/ccgJ1CJ6.s:4113   .debug_str:000000000000035a .LASF101
     /tmp/ccgJ1CJ6.s:4273   .debug_str:00000000000007e7 .LASF102
     /tmp/ccgJ1CJ6.s:4243   .debug_str:0000000000000703 .LASF103
     /tmp/ccgJ1CJ6.s:4049   .debug_str:000000000000013a .LASF104
     /tmp/ccgJ1CJ6.s:4055   .debug_str:0000000000000165 .LASF105
     /tmp/ccgJ1CJ6.s:4139   .debug_str:0000000000000431 .LASF106
     /tmp/ccgJ1CJ6.s:4301   .debug_str:0000000000000989 .LASF107
     /tmp/ccgJ1CJ6.s:4255   .debug_str:000000000000073e .LASF108
     /tmp/ccgJ1CJ6.s:4193   .debug_str:000000000000056d .LASF159
     /tmp/ccgJ1CJ6.s:4131   .debug_str:00000000000003d4 .LASF160
     /tmp/ccgJ1CJ6.s:4107   .debug_str:000000000000032a .LASF109
     /tmp/ccgJ1CJ6.s:4043   .debug_str:00000000000000fa .LASF110
     /tmp/ccgJ1CJ6.s:4287   .debug_str:000000000000086c .LASF111
     /tmp/ccgJ1CJ6.s:4089   .debug_str:0000000000000288 .LASF112
     /tmp/ccgJ1CJ6.s:4185   .debug_str:0000000000000538 .LASF113
     /tmp/ccgJ1CJ6.s:4087   .debug_str:000000000000026c .LASF114
     /tmp/ccgJ1CJ6.s:4061   .debug_str:00000000000001a9 .LASF115
     /tmp/ccgJ1CJ6.s:4013   .debug_str:0000000000000000 .LASF116
     /tmp/ccgJ1CJ6.s:4129   .debug_str:00000000000003ca .LASF117
     /tmp/ccgJ1CJ6.s:4155   .debug_str:0000000000000481 .LASF118
     /tmp/ccgJ1CJ6.s:4205   .debug_str:00000000000005ab .LASF119
     /tmp/ccgJ1CJ6.s:4027   .debug_str:0000000000000077 .LASF120
     /tmp/ccgJ1CJ6.s:4157   .debug_str:000000000000049c .LASF121
     /tmp/ccgJ1CJ6.s:4321   .debug_str:0000000000000a41 .LASF122
     /tmp/ccgJ1CJ6.s:4105   .debug_str:0000000000000325 .LASF123
     /tmp/ccgJ1CJ6.s:4229   .debug_str:0000000000000678 .LASF124
     /tmp/ccgJ1CJ6.s:4021   .debug_str:000000000000003f .LASF125
     /tmp/ccgJ1CJ6.s:4325   .debug_str:0000000000000a79 .LASF126
     /tmp/ccgJ1CJ6.s:4285   .debug_str:0000000000000853 .LASF127
     /tmp/ccgJ1CJ6.s:4327   .debug_str:0000000000000a91 .LASF128
     /tmp/ccgJ1CJ6.s:4093   .debug_str:00000000000002b5 .LASF129
     /tmp/ccgJ1CJ6.s:4119   .debug_str:000000000000037e .LASF130
     /tmp/ccgJ1CJ6.s:4057   .debug_str:0000000000000179 .LASF131
GAS LISTING /tmp/ccgJ1CJ6.s 			page 25


     /tmp/ccgJ1CJ6.s:4173   .debug_str:00000000000004f1 .LASF132
     /tmp/ccgJ1CJ6.s:4153   .debug_str:0000000000000466 .LASF133
     /tmp/ccgJ1CJ6.s:4115   .debug_str:0000000000000361 .LASF134
     /tmp/ccgJ1CJ6.s:4305   .debug_str:00000000000009ac .LASF135
     /tmp/ccgJ1CJ6.s:4213   .debug_str:00000000000005f0 .LASF136
     /tmp/ccgJ1CJ6.s:4233   .debug_str:0000000000000696 .LASF137
     /tmp/ccgJ1CJ6.s:579    .text:0000000000000324 .LFB51
     /tmp/ccgJ1CJ6.s:605    .text:0000000000000358 .LFE51
     /tmp/ccgJ1CJ6.s:595    .text:0000000000000348 .LVL47
     /tmp/ccgJ1CJ6.s:4309   .debug_str:00000000000009de .LASF138
     /tmp/ccgJ1CJ6.s:9      .text:0000000000000000 .LFB50
     /tmp/ccgJ1CJ6.s:54     .text:0000000000000044 .LFE50
     /tmp/ccgJ1CJ6.s:4159   .debug_str:00000000000004a5 .LASF139
     /tmp/ccgJ1CJ6.s:4145   .debug_str:0000000000000445 .LASF140
     /tmp/ccgJ1CJ6.s:38     .text:000000000000002c .LBB36
     /tmp/ccgJ1CJ6.s:50     .text:0000000000000040 .LBE36
     /tmp/ccgJ1CJ6.s:3529   .debug_loc:0000000000000000 .LLST0
     /tmp/ccgJ1CJ6.s:4245   .debug_str:0000000000000716 .LASF142
     /tmp/ccgJ1CJ6.s:4261   .debug_str:0000000000000776 .LASF141
     /tmp/ccgJ1CJ6.s:4065   .debug_str:00000000000001c8 .LASF143
     /tmp/ccgJ1CJ6.s:4063   .debug_str:00000000000001b5 .LASF144
     /tmp/ccgJ1CJ6.s:384    .text:0000000000000208 .LFB36
     /tmp/ccgJ1CJ6.s:574    .text:0000000000000324 .LFE36
     /tmp/ccgJ1CJ6.s:3975   .debug_ranges:0000000000000000 .Ldebug_ranges0
     /tmp/ccgJ1CJ6.s:3538   .debug_loc:000000000000002c .LLST34
     /tmp/ccgJ1CJ6.s:457    .text:0000000000000278 .LBB130
     /tmp/ccgJ1CJ6.s:3549   .debug_loc:0000000000000062 .LLST35
     /tmp/ccgJ1CJ6.s:3564   .debug_loc:00000000000000aa .LLST36
     /tmp/ccgJ1CJ6.s:3575   .debug_loc:00000000000000e0 .LLST37
     /tmp/ccgJ1CJ6.s:465    .text:0000000000000284 .LBB132
     /tmp/ccgJ1CJ6.s:472    .text:000000000000028c .LBE132
     /tmp/ccgJ1CJ6.s:3582   .debug_loc:0000000000000103 .LLST38
     /tmp/ccgJ1CJ6.s:469    .text:000000000000028c .LVL37
     /tmp/ccgJ1CJ6.s:476    .text:000000000000028c .LBB135
     /tmp/ccgJ1CJ6.s:484    .text:0000000000000290 .LBE135
     /tmp/ccgJ1CJ6.s:3589   .debug_loc:0000000000000126 .LLST39
     /tmp/ccgJ1CJ6.s:554    .text:0000000000000308 .LVL45
     /tmp/ccgJ1CJ6.s:405    .text:0000000000000228 .LBB126
     /tmp/ccgJ1CJ6.s:3596   .debug_loc:0000000000000149 .LLST33
     /tmp/ccgJ1CJ6.s:60     .text:0000000000000044 .LFB35
     /tmp/ccgJ1CJ6.s:378    .text:0000000000000208 .LFE35
     /tmp/ccgJ1CJ6.s:4225   .debug_str:0000000000000669 .LASF145
     /tmp/ccgJ1CJ6.s:3611   .debug_loc:0000000000000191 .LLST1
     /tmp/ccgJ1CJ6.s:4071   .debug_str:000000000000020f .LASF146
     /tmp/ccgJ1CJ6.s:3637   .debug_loc:0000000000000203 .LLST2
     /tmp/ccgJ1CJ6.s:4161   .debug_str:00000000000004b4 .LASF147
     /tmp/ccgJ1CJ6.s:3655   .debug_loc:000000000000024f .LLST4
     /tmp/ccgJ1CJ6.s:4187   .debug_str:0000000000000540 .LASF148
     /tmp/ccgJ1CJ6.s:3679   .debug_loc:00000000000002bf .LLST5
     /tmp/ccgJ1CJ6.s:4297   .debug_str:000000000000096d .LASF149
     /tmp/ccgJ1CJ6.s:3703   .debug_loc:000000000000032f .LLST6
     /tmp/ccgJ1CJ6.s:244    .text:000000000000014c .LBB87
     /tmp/ccgJ1CJ6.s:280    .text:0000000000000180 .LBE87
     /tmp/ccgJ1CJ6.s:4265   .debug_str:00000000000007a0 .LASF150
     /tmp/ccgJ1CJ6.s:3732   .debug_loc:00000000000003b3 .LLST14
     /tmp/ccgJ1CJ6.s:247    .text:000000000000014c .LBB88
     /tmp/ccgJ1CJ6.s:254    .text:0000000000000158 .LBE88
GAS LISTING /tmp/ccgJ1CJ6.s 			page 26


     /tmp/ccgJ1CJ6.s:3739   .debug_loc:00000000000003d6 .LLST15
     /tmp/ccgJ1CJ6.s:252    .text:0000000000000158 .LVL20
     /tmp/ccgJ1CJ6.s:255    .text:0000000000000158 .LBB90
     /tmp/ccgJ1CJ6.s:262    .text:0000000000000160 .LBE90
     /tmp/ccgJ1CJ6.s:3747   .debug_loc:00000000000003fa .LLST16
     /tmp/ccgJ1CJ6.s:3754   .debug_loc:000000000000041d .LLST17
     /tmp/ccgJ1CJ6.s:3761   .debug_loc:0000000000000440 .LLST18
     /tmp/ccgJ1CJ6.s:168    .text:00000000000000e8 .LBB80
     /tmp/ccgJ1CJ6.s:3768   .debug_loc:0000000000000463 .LLST7
     /tmp/ccgJ1CJ6.s:3779   .debug_loc:0000000000000499 .LLST8
     /tmp/ccgJ1CJ6.s:3794   .debug_loc:00000000000004e1 .LLST9
     /tmp/ccgJ1CJ6.s:170    .text:00000000000000e8 .LBB82
     /tmp/ccgJ1CJ6.s:177    .text:00000000000000f4 .LBE82
     /tmp/ccgJ1CJ6.s:3805   .debug_loc:0000000000000517 .LLST10
     /tmp/ccgJ1CJ6.s:175    .text:00000000000000f4 .LVL14
     /tmp/ccgJ1CJ6.s:182    .text:0000000000000100 .LBB84
     /tmp/ccgJ1CJ6.s:189    .text:0000000000000108 .LBE84
     /tmp/ccgJ1CJ6.s:3813   .debug_loc:000000000000053b .LLST11
     /tmp/ccgJ1CJ6.s:3820   .debug_loc:000000000000055e .LLST12
     /tmp/ccgJ1CJ6.s:3827   .debug_loc:0000000000000581 .LLST13
     /tmp/ccgJ1CJ6.s:322    .text:00000000000001ac .LBB98
     /tmp/ccgJ1CJ6.s:374    .text:0000000000000208 .LBE98
     /tmp/ccgJ1CJ6.s:3834   .debug_loc:00000000000005a4 .LLST19
     /tmp/ccgJ1CJ6.s:3845   .debug_loc:00000000000005da .LLST20
     /tmp/ccgJ1CJ6.s:3860   .debug_loc:0000000000000622 .LLST21
     /tmp/ccgJ1CJ6.s:324    .text:00000000000001ac .LBB100
     /tmp/ccgJ1CJ6.s:331    .text:00000000000001b8 .LBE100
     /tmp/ccgJ1CJ6.s:3867   .debug_loc:0000000000000645 .LLST22
     /tmp/ccgJ1CJ6.s:329    .text:00000000000001b8 .LVL28
     /tmp/ccgJ1CJ6.s:332    .text:00000000000001b8 .LBB102
     /tmp/ccgJ1CJ6.s:339    .text:00000000000001c0 .LBE102
     /tmp/ccgJ1CJ6.s:3875   .debug_loc:0000000000000669 .LLST23
     /tmp/ccgJ1CJ6.s:3883   .debug_loc:000000000000068d .LLST24
     /tmp/ccgJ1CJ6.s:3890   .debug_loc:00000000000006b0 .LLST25
     /tmp/ccgJ1CJ6.s:93     .text:000000000000007c .LBB74
     /tmp/ccgJ1CJ6.s:99     .text:0000000000000080 .LBE74
     /tmp/ccgJ1CJ6.s:3897   .debug_loc:00000000000006d3 .LLST3
     /tmp/ccgJ1CJ6.s:118    .text:0000000000000098 .LBB104
     /tmp/ccgJ1CJ6.s:162    .text:00000000000000e8 .LBE104
     /tmp/ccgJ1CJ6.s:3906   .debug_loc:00000000000006ff .LLST26
     /tmp/ccgJ1CJ6.s:3917   .debug_loc:0000000000000735 .LLST27
     /tmp/ccgJ1CJ6.s:3926   .debug_loc:0000000000000761 .LLST28
     /tmp/ccgJ1CJ6.s:120    .text:0000000000000098 .LBB106
     /tmp/ccgJ1CJ6.s:128    .text:00000000000000a4 .LBE106
     /tmp/ccgJ1CJ6.s:3933   .debug_loc:0000000000000784 .LLST29
     /tmp/ccgJ1CJ6.s:126    .text:00000000000000a4 .LVL10
     /tmp/ccgJ1CJ6.s:133    .text:00000000000000b0 .LBB108
     /tmp/ccgJ1CJ6.s:140    .text:00000000000000b8 .LBE108
     /tmp/ccgJ1CJ6.s:3941   .debug_loc:00000000000007a8 .LLST30
     /tmp/ccgJ1CJ6.s:3948   .debug_loc:00000000000007cb .LLST31
     /tmp/ccgJ1CJ6.s:3955   .debug_loc:00000000000007ee .LLST32
     /tmp/ccgJ1CJ6.s:4259   .debug_str:000000000000076b .LASF151
     /tmp/ccgJ1CJ6.s:4101   .debug_str:00000000000002f8 .LASF152
     /tmp/ccgJ1CJ6.s:37     .text:000000000000002c .LVL1
     /tmp/ccgJ1CJ6.s:47     .text:0000000000000040 .LVL2
     /tmp/ccgJ1CJ6.s:518    .text:00000000000002c4 .LVL41
     /tmp/ccgJ1CJ6.s:546    .text:00000000000002fc .LVL44
GAS LISTING /tmp/ccgJ1CJ6.s 			page 27


     /tmp/ccgJ1CJ6.s:567    .text:0000000000000318 .LVL46
     /tmp/ccgJ1CJ6.s:449    .text:0000000000000278 .LVL35
     /tmp/ccgJ1CJ6.s:533    .text:00000000000002e4 .LVL42
     /tmp/ccgJ1CJ6.s:541    .text:00000000000002f4 .LVL43
     /tmp/ccgJ1CJ6.s:464    .text:0000000000000284 .LVL36
     /tmp/ccgJ1CJ6.s:482    .text:0000000000000290 .LVL38
     /tmp/ccgJ1CJ6.s:403    .text:0000000000000228 .LVL33
     /tmp/ccgJ1CJ6.s:414    .text:0000000000000238 .LVL34
     /tmp/ccgJ1CJ6.s:498    .text:00000000000002a4 .LVL39
     /tmp/ccgJ1CJ6.s:509    .text:00000000000002b4 .LVL40
     /tmp/ccgJ1CJ6.s:63     .text:0000000000000044 .LVL3
     /tmp/ccgJ1CJ6.s:124    .text:000000000000009c .LVL9
     /tmp/ccgJ1CJ6.s:310    .text:00000000000001a0 .LVL26
     /tmp/ccgJ1CJ6.s:316    .text:00000000000001ac .LVL27
     /tmp/ccgJ1CJ6.s:364    .text:0000000000000204 .LVL32
     /tmp/ccgJ1CJ6.s:87     .text:0000000000000078 .LVL4
     /tmp/ccgJ1CJ6.s:106    .text:000000000000008c .LVL7
     /tmp/ccgJ1CJ6.s:114    .text:0000000000000098 .LVL8
     /tmp/ccgJ1CJ6.s:159    .text:00000000000000e8 .LVL13
     /tmp/ccgJ1CJ6.s:206    .text:000000000000012c .LVL17
     /tmp/ccgJ1CJ6.s:216    .text:0000000000000134 .LVL18
     /tmp/ccgJ1CJ6.s:295    .text:0000000000000190 .LVL25
     /tmp/ccgJ1CJ6.s:274    .text:0000000000000178 .LVL22
     /tmp/ccgJ1CJ6.s:278    .text:0000000000000180 .LVL23
     /tmp/ccgJ1CJ6.s:286    .text:000000000000018c .LVL24
     /tmp/ccgJ1CJ6.s:260    .text:0000000000000160 .LVL21
     /tmp/ccgJ1CJ6.s:246    .text:000000000000014c .LVL19
     /tmp/ccgJ1CJ6.s:187    .text:0000000000000108 .LVL16
     /tmp/ccgJ1CJ6.s:181    .text:0000000000000100 .LVL15
     /tmp/ccgJ1CJ6.s:354    .text:00000000000001ec .LVL30
     /tmp/ccgJ1CJ6.s:357    .text:00000000000001f0 .LVL31
     /tmp/ccgJ1CJ6.s:337    .text:00000000000001c0 .LVL29
     /tmp/ccgJ1CJ6.s:91     .text:000000000000007c .LVL5
     /tmp/ccgJ1CJ6.s:97     .text:0000000000000080 .LVL6
     /tmp/ccgJ1CJ6.s:138    .text:00000000000000b8 .LVL12
     /tmp/ccgJ1CJ6.s:132    .text:00000000000000b0 .LVL11
     /tmp/ccgJ1CJ6.s:630    .debug_info:0000000000000000 .Ldebug_info0
     /tmp/ccgJ1CJ6.s:102    .text:0000000000000084 .LBB76
     /tmp/ccgJ1CJ6.s:116    .text:0000000000000098 .LBE76
     /tmp/ccgJ1CJ6.s:163    .text:00000000000000e8 .LBB110
     /tmp/ccgJ1CJ6.s:235    .text:0000000000000148 .LBE110
     /tmp/ccgJ1CJ6.s:239    .text:0000000000000148 .LBB111
     /tmp/ccgJ1CJ6.s:297    .text:0000000000000190 .LBE111
     /tmp/ccgJ1CJ6.s:320    .text:00000000000001ac .LBB112
     /tmp/ccgJ1CJ6.s:375    .text:0000000000000208 .LBE112
     /tmp/ccgJ1CJ6.s:203    .text:0000000000000128 .LBE80
     /tmp/ccgJ1CJ6.s:281    .text:0000000000000180 .LBB92
     /tmp/ccgJ1CJ6.s:289    .text:000000000000018c .LBE92
     /tmp/ccgJ1CJ6.s:416    .text:0000000000000238 .LBE126
     /tmp/ccgJ1CJ6.s:500    .text:00000000000002a4 .LBB138
     /tmp/ccgJ1CJ6.s:511    .text:00000000000002b4 .LBE138
     /tmp/ccgJ1CJ6.s:456    .text:0000000000000278 .LBB129
     /tmp/ccgJ1CJ6.s:489    .text:0000000000000298 .LBE129
     /tmp/ccgJ1CJ6.s:520    .text:00000000000002c4 .LBB139
     /tmp/ccgJ1CJ6.s:557    .text:000000000000030c .LBE139
     /tmp/ccgJ1CJ6.s:474    .text:000000000000028c .LBE130
     /tmp/ccgJ1CJ6.s:522    .text:00000000000002c4 .LBB137
GAS LISTING /tmp/ccgJ1CJ6.s 			page 28


     /tmp/ccgJ1CJ6.s:549    .text:00000000000002fc .LBE137

UNDEFINED SYMBOLS
__mem_alloc
__mem_free
_ZN3TCB7prepareEv
