GAS LISTING /tmp/cc0oCcEx.s 			page 1


   1              		.file	"syscall_c.cpp"
   2              		.option pic
   3              		.option norelax
   4              		.text
   5              	.Ltext0:
   6              		.align	2
   7              		.globl	_Z9move_regsv
   9              	_Z9move_regsv:
  10              	.LFB31:
  11              		.file 1 "src/syscall_c.cpp"
   1:src/syscall_c.cpp **** #include "../h/syscall_c.h"
   2:src/syscall_c.cpp **** #include "../lib/hw.h"
   3:src/syscall_c.cpp **** #include "../h/tcb.hpp"
   4:src/syscall_c.cpp **** 
   5:src/syscall_c.cpp **** void move_regs(){
  12              		.loc 1 5 17
  13              		.cfi_startproc
  14 0000 130101FF 		addi	sp,sp,-16
  15              		.cfi_def_cfa_offset 16
  16 0004 23348100 		sd	s0,8(sp)
  17              		.cfi_offset 8, -8
  18 0008 13040101 		addi	s0,sp,16
  19              		.cfi_def_cfa 8, 0
   6:src/syscall_c.cpp ****     __asm__ volatile ("mv a7, a6");
  20              		.loc 1 6 5
  21              		.loc 1 6 35 is_stmt 0
  22              	#APP
  23              	# 6 "src/syscall_c.cpp" 1
   7              	    __asm__ volatile ("mv a6, a5");
  24              		mv a7, a6
  25              	# 0 "" 2
  26              		.loc 1 7 5 is_stmt 1
  27              		.loc 1 7 35 is_stmt 0
  28              	# 7 "src/syscall_c.cpp" 1
   8              	    __asm__ volatile ("mv a5, a4");
  29              		mv a6, a5
  30              	# 0 "" 2
  31              		.loc 1 8 5 is_stmt 1
  32              		.loc 1 8 35 is_stmt 0
  33              	# 8 "src/syscall_c.cpp" 1
   9              	    __asm__ volatile ("mv a4, a3");
  34              		mv a5, a4
  35              	# 0 "" 2
  36              		.loc 1 9 5 is_stmt 1
  37              		.loc 1 9 35 is_stmt 0
  38              	# 9 "src/syscall_c.cpp" 1
  10              	    __asm__ volatile ("mv a3, a2");
  39              		mv a4, a3
  40              	# 0 "" 2
  41              		.loc 1 10 5 is_stmt 1
  42              		.loc 1 10 35 is_stmt 0
  43              	# 10 "src/syscall_c.cpp" 1
  11              	    __asm__ volatile ("mv a2, a1");
  44              		mv a3, a2
  45              	# 0 "" 2
  46              		.loc 1 11 5 is_stmt 1
  47              		.loc 1 11 35 is_stmt 0
GAS LISTING /tmp/cc0oCcEx.s 			page 2


  48              	# 11 "src/syscall_c.cpp" 1
  12              	    __asm__ volatile ("mv a1, a0");
  49              		mv a2, a1
  50              	# 0 "" 2
  51              		.loc 1 12 5 is_stmt 1
  52              		.loc 1 12 35 is_stmt 0
  53              	# 12 "src/syscall_c.cpp" 1
  13              	}
  54              		mv a1, a0
  55              	# 0 "" 2
  56              		.loc 1 13 1
  57              	#NO_APP
  58 0028 03348100 		ld	s0,8(sp)
  59              		.cfi_restore 8
  60              		.cfi_def_cfa 2, 16
  61 002c 13010101 		addi	sp,sp,16
  62              		.cfi_def_cfa_offset 0
  63 0030 67800000 		jr	ra
  64              		.cfi_endproc
  65              	.LFE31:
  67              		.align	2
  68              		.globl	_Z9mem_allocm
  70              	_Z9mem_allocm:
  71              	.LFB32:
  14:src/syscall_c.cpp **** 
  15:src/syscall_c.cpp **** //==========[MEMORY]=============================================================
  16:src/syscall_c.cpp **** void* mem_alloc (size_t size){
  72              		.loc 1 16 30 is_stmt 1
  73              		.cfi_startproc
  74              	.LVL0:
  75 0034 130101FF 		addi	sp,sp,-16
  76              		.cfi_def_cfa_offset 16
  77 0038 23348100 		sd	s0,8(sp)
  78              		.cfi_offset 8, -8
  79 003c 13040101 		addi	s0,sp,16
  80              		.cfi_def_cfa 8, 0
  17:src/syscall_c.cpp ****     uint64 func_id=0x01;
  81              		.loc 1 17 5
  82              	.LVL1:
  18:src/syscall_c.cpp ****     uint64 result;
  83              		.loc 1 18 5
  19:src/syscall_c.cpp **** 
  20:src/syscall_c.cpp ****     if(size<=0) return nullptr;
  84              		.loc 1 20 5
  85 0040 630A0502 		beqz	a0,.L6
  21:src/syscall_c.cpp **** 
  22:src/syscall_c.cpp ****     size_t my_size=size/MEM_BLOCK_SIZE;
  86              		.loc 1 22 5
  87              		.loc 1 22 12 is_stmt 0
  88 0044 93576500 		srli	a5,a0,6
  89              	.LVL2:
  23:src/syscall_c.cpp ****     if(size % MEM_BLOCK_SIZE > 0){
  90              		.loc 1 23 5 is_stmt 1
  91              		.loc 1 23 13 is_stmt 0
  92 0048 1375F503 		andi	a0,a0,63
  93              	.LVL3:
  94              		.loc 1 23 5
GAS LISTING /tmp/cc0oCcEx.s 			page 3


  95 004c 63040500 		beqz	a0,.L5
  24:src/syscall_c.cpp ****         my_size++;
  96              		.loc 1 24 9 is_stmt 1
  97              		.loc 1 24 16 is_stmt 0
  98 0050 93871700 		addi	a5,a5,1
  99              	.LVL4:
 100              	.L5:
  25:src/syscall_c.cpp ****     }
  26:src/syscall_c.cpp ****     __asm__ volatile ("mv a1, %0" : : "r" (my_size));
 101              		.loc 1 26 5 is_stmt 1
 102              		.loc 1 26 53 is_stmt 0
 103              	#APP
 104              	# 26 "src/syscall_c.cpp" 1
  27              	
  28:src/syscall_c.cpp ****     __asm__ volatile ("mv a0, %0" : : "r" (func_id));
 105              		mv a1, a5
 106              	# 0 "" 2
 107              		.loc 1 28 5 is_stmt 1
 108              		.loc 1 28 53 is_stmt 0
 109              	#NO_APP
 110 0058 93071000 		li	a5,1
 111              	.LVL5:
 112              	#APP
 113              	# 28 "src/syscall_c.cpp" 1
  29              	    __asm__ volatile ("ecall");
 114              		mv a0, a5
 115              	# 0 "" 2
 116              		.loc 1 29 5 is_stmt 1
 117              		.loc 1 29 31 is_stmt 0
 118              	# 29 "src/syscall_c.cpp" 1
  30              	    __asm__ volatile ("mv %0, a0" : "=r" (result));
 119              		ecall
 120              	# 0 "" 2
 121              		.loc 1 30 5 is_stmt 1
 122              		.loc 1 30 51 is_stmt 0
 123              	# 30 "src/syscall_c.cpp" 1
  31              	    return (void*)result;
 124              		mv a0, a0
 125              	# 0 "" 2
 126              	.LVL6:
 127              		.loc 1 31 5 is_stmt 1
 128              	#NO_APP
 129              	.L3:
  32:src/syscall_c.cpp **** }
 130              		.loc 1 32 1 is_stmt 0
 131 0068 03348100 		ld	s0,8(sp)
 132              		.cfi_remember_state
 133              		.cfi_restore 8
 134              		.cfi_def_cfa 2, 16
 135 006c 13010101 		addi	sp,sp,16
 136              		.cfi_def_cfa_offset 0
 137 0070 67800000 		jr	ra
 138              	.LVL7:
 139              	.L6:
 140              		.cfi_restore_state
  20:src/syscall_c.cpp **** 
 141              		.loc 1 20 24
GAS LISTING /tmp/cc0oCcEx.s 			page 4


 142 0074 13050000 		li	a0,0
 143              	.LVL8:
 144 0078 6FF01FFF 		j	.L3
 145              		.cfi_endproc
 146              	.LFE32:
 148              		.align	2
 149              		.globl	_Z8mem_freePv
 151              	_Z8mem_freePv:
 152              	.LFB33:
  33:src/syscall_c.cpp **** 
  34:src/syscall_c.cpp **** int mem_free (void* p){
 153              		.loc 1 34 23 is_stmt 1
 154              		.cfi_startproc
 155              	.LVL9:
  35:src/syscall_c.cpp ****     uint64 func_id=0x02;
 156              		.loc 1 35 5
  36:src/syscall_c.cpp ****     uint64 result;
 157              		.loc 1 36 5
  37:src/syscall_c.cpp **** 
  38:src/syscall_c.cpp ****     if(p==nullptr) return -8;
 158              		.loc 1 38 5
 159 007c 63020504 		beqz	a0,.L10
  34:src/syscall_c.cpp ****     uint64 func_id=0x02;
 160              		.loc 1 34 23 is_stmt 0
 161 0080 130101FF 		addi	sp,sp,-16
 162              		.cfi_def_cfa_offset 16
 163 0084 23341100 		sd	ra,8(sp)
 164 0088 23308100 		sd	s0,0(sp)
 165              		.cfi_offset 1, -8
 166              		.cfi_offset 8, -16
 167 008c 13040101 		addi	s0,sp,16
 168              		.cfi_def_cfa 8, 0
  39:src/syscall_c.cpp **** 
  40:src/syscall_c.cpp ****     move_regs();
 169              		.loc 1 40 5 is_stmt 1
 170              		.loc 1 40 14 is_stmt 0
 171 0090 97000000 		call	_Z9move_regsv
 171      E7800000 
 172              	.LVL10:
  41:src/syscall_c.cpp ****     __asm__ volatile ("mv a0, %0" : : "r" (func_id));
 173              		.loc 1 41 5 is_stmt 1
 174              		.loc 1 41 53 is_stmt 0
 175 0098 93072000 		li	a5,2
 176              	#APP
 177              	# 41 "src/syscall_c.cpp" 1
  42              	    __asm__ volatile ("ecall");
 178              		mv a0, a5
 179              	# 0 "" 2
 180              		.loc 1 42 5 is_stmt 1
 181              		.loc 1 42 31 is_stmt 0
 182              	# 42 "src/syscall_c.cpp" 1
  43              	    __asm__ volatile ("mv %0, a0" : "=r" (result));
 183              		ecall
 184              	# 0 "" 2
 185              		.loc 1 43 5 is_stmt 1
 186              		.loc 1 43 51 is_stmt 0
 187              	# 43 "src/syscall_c.cpp" 1
GAS LISTING /tmp/cc0oCcEx.s 			page 5


  44              	    if(result!=0) return -8;
 188              		mv a0, a0
 189              	# 0 "" 2
 190              	.LVL11:
 191              		.loc 1 44 5 is_stmt 1
 192              	#NO_APP
 193 00a8 63100502 		bnez	a0,.L11
  45:src/syscall_c.cpp ****     else return result;
 194              		.loc 1 45 10
 195              		.loc 1 45 17 is_stmt 0
 196 00ac 1B050500 		sext.w	a0,a0
 197              	.LVL12:
 198              	.L9:
  46:src/syscall_c.cpp **** }
 199              		.loc 1 46 1
 200 00b0 83308100 		ld	ra,8(sp)
 201              		.cfi_restore 1
 202 00b4 03340100 		ld	s0,0(sp)
 203              		.cfi_restore 8
 204              		.cfi_def_cfa 2, 16
 205 00b8 13010101 		addi	sp,sp,16
 206              		.cfi_def_cfa_offset 0
 207 00bc 67800000 		jr	ra
 208              	.LVL13:
 209              	.L10:
  38:src/syscall_c.cpp **** 
 210              		.loc 1 38 28
 211 00c0 130580FF 		li	a0,-8
 212              	.LVL14:
 213              		.loc 1 46 1
 214 00c4 67800000 		ret
 215              	.LVL15:
 216              	.L11:
 217              		.cfi_def_cfa_register 8
 218              		.cfi_offset 1, -8
 219              		.cfi_offset 8, -16
  44:src/syscall_c.cpp ****     else return result;
 220              		.loc 1 44 27
 221 00c8 130580FF 		li	a0,-8
 222              	.LVL16:
 223 00cc 6FF05FFE 		j	.L9
 224              		.cfi_endproc
 225              	.LFE33:
 227              		.align	2
 228              		.globl	_Z13thread_createPP3TCBPFvPvES2_
 230              	_Z13thread_createPP3TCBPFvPvES2_:
 231              	.LFB34:
  47:src/syscall_c.cpp **** 
  48:src/syscall_c.cpp **** //==========[THREADS]=============================================================
  49:src/syscall_c.cpp **** int thread_create (thread_t* handle, void(*start_routine)(void*),void* arg){
 232              		.loc 1 49 76 is_stmt 1
 233              		.cfi_startproc
 234              	.LVL17:
  50:src/syscall_c.cpp ****     uint64 func_id=0x11;
 235              		.loc 1 50 5
  51:src/syscall_c.cpp ****     uint64 result;
 236              		.loc 1 51 5
GAS LISTING /tmp/cc0oCcEx.s 			page 6


  52:src/syscall_c.cpp **** 
  53:src/syscall_c.cpp ****     if(handle==nullptr) return -4;
 237              		.loc 1 53 5
 238 00d0 630C0506 		beqz	a0,.L18
  49:src/syscall_c.cpp ****     uint64 func_id=0x11;
 239              		.loc 1 49 76 is_stmt 0
 240 00d4 130101FD 		addi	sp,sp,-48
 241              		.cfi_def_cfa_offset 48
 242 00d8 23341102 		sd	ra,40(sp)
 243 00dc 23308102 		sd	s0,32(sp)
 244 00e0 233C9100 		sd	s1,24(sp)
 245 00e4 23382101 		sd	s2,16(sp)
 246 00e8 23343101 		sd	s3,8(sp)
 247              		.cfi_offset 1, -8
 248              		.cfi_offset 8, -16
 249              		.cfi_offset 9, -24
 250              		.cfi_offset 18, -32
 251              		.cfi_offset 19, -40
 252 00ec 13040103 		addi	s0,sp,48
 253              		.cfi_def_cfa 8, 0
 254 00f0 93040500 		mv	s1,a0
 255 00f4 93890500 		mv	s3,a1
 256 00f8 13090600 		mv	s2,a2
  54:src/syscall_c.cpp ****     uint64* stack=(uint64*)mem_alloc((size_t)DEFAULT_STACK_SIZE * sizeof(uint64));
 257              		.loc 1 54 5 is_stmt 1
 258              		.loc 1 54 37 is_stmt 0
 259 00fc 37850000 		li	a0,32768
 260              	.LVL18:
 261 0100 97000000 		call	_Z9mem_allocm
 261      E7800000 
 262              	.LVL19:
  55:src/syscall_c.cpp **** 
  56:src/syscall_c.cpp ****     __asm__ volatile ("mv a1, %0" : : "r" (handle));
 263              		.loc 1 56 5 is_stmt 1
 264              		.loc 1 56 52 is_stmt 0
 265              	#APP
 266              	# 56 "src/syscall_c.cpp" 1
  57              	    __asm__ volatile ("mv a2, %0" : : "r" (start_routine));
 267              		mv a1, s1
 268              	# 0 "" 2
 269              		.loc 1 57 5 is_stmt 1
 270              		.loc 1 57 59 is_stmt 0
 271              	# 57 "src/syscall_c.cpp" 1
  58              	    __asm__ volatile ("mv a3, %0" : : "r" (arg));
 272              		mv a2, s3
 273              	# 0 "" 2
 274              		.loc 1 58 5 is_stmt 1
 275              		.loc 1 58 49 is_stmt 0
 276              	# 58 "src/syscall_c.cpp" 1
  59              	    __asm__ volatile ("mv a4, %0" : : "r" (stack));
 277              		mv a3, s2
 278              	# 0 "" 2
 279              		.loc 1 59 5 is_stmt 1
 280              		.loc 1 59 51 is_stmt 0
 281              	# 59 "src/syscall_c.cpp" 1
  60              	
  61:src/syscall_c.cpp ****     __asm__ volatile ("mv a0, %0" : : "r" (func_id));
GAS LISTING /tmp/cc0oCcEx.s 			page 7


 282              		mv a4, a0
 283              	# 0 "" 2
 284              		.loc 1 61 5 is_stmt 1
 285              		.loc 1 61 53 is_stmt 0
 286              	#NO_APP
 287 0118 93071001 		li	a5,17
 288              	#APP
 289              	# 61 "src/syscall_c.cpp" 1
  62              	    __asm__ volatile ("ecall");
 290              		mv a0, a5
 291              	# 0 "" 2
 292              		.loc 1 62 5 is_stmt 1
 293              		.loc 1 62 31 is_stmt 0
 294              	# 62 "src/syscall_c.cpp" 1
  63              	    __asm__ volatile ("mv %0, a0" : "=r" (result));
 295              		ecall
 296              	# 0 "" 2
 297              		.loc 1 63 5 is_stmt 1
 298              		.loc 1 63 51 is_stmt 0
 299              	# 63 "src/syscall_c.cpp" 1
  64              	    return result;
 300              		mv a0, a0
 301              	# 0 "" 2
 302              	.LVL20:
 303              		.loc 1 64 5 is_stmt 1
 304              		.loc 1 64 12 is_stmt 0
 305              	#NO_APP
 306 0128 1B050500 		sext.w	a0,a0
 307              	.LVL21:
  65:src/syscall_c.cpp **** }
 308              		.loc 1 65 1
 309 012c 83308102 		ld	ra,40(sp)
 310              		.cfi_restore 1
 311 0130 03340102 		ld	s0,32(sp)
 312              		.cfi_restore 8
 313              		.cfi_def_cfa 2, 48
 314 0134 83348101 		ld	s1,24(sp)
 315              		.cfi_restore 9
 316              	.LVL22:
 317 0138 03390101 		ld	s2,16(sp)
 318              		.cfi_restore 18
 319              	.LVL23:
 320 013c 83398100 		ld	s3,8(sp)
 321              		.cfi_restore 19
 322              	.LVL24:
 323 0140 13010103 		addi	sp,sp,48
 324              		.cfi_def_cfa_offset 0
 325 0144 67800000 		jr	ra
 326              	.LVL25:
 327              	.L18:
  53:src/syscall_c.cpp ****     uint64* stack=(uint64*)mem_alloc((size_t)DEFAULT_STACK_SIZE * sizeof(uint64));
 328              		.loc 1 53 33
 329 0148 1305C0FF 		li	a0,-4
 330              	.LVL26:
 331              		.loc 1 65 1
 332 014c 67800000 		ret
 333              		.cfi_endproc
GAS LISTING /tmp/cc0oCcEx.s 			page 8


 334              	.LFE34:
 336              		.align	2
 337              		.globl	_Z11thread_exitv
 339              	_Z11thread_exitv:
 340              	.LFB35:
  66:src/syscall_c.cpp **** 
  67:src/syscall_c.cpp **** int thread_exit (){
 341              		.loc 1 67 19 is_stmt 1
 342              		.cfi_startproc
 343 0150 130101FF 		addi	sp,sp,-16
 344              		.cfi_def_cfa_offset 16
 345 0154 23348100 		sd	s0,8(sp)
 346              		.cfi_offset 8, -8
 347 0158 13040101 		addi	s0,sp,16
 348              		.cfi_def_cfa 8, 0
  68:src/syscall_c.cpp ****     uint64 func_id=0x12;
 349              		.loc 1 68 5
 350              	.LVL27:
  69:src/syscall_c.cpp ****     uint64 result;
 351              		.loc 1 69 5
  70:src/syscall_c.cpp **** 
  71:src/syscall_c.cpp ****     __asm__ volatile ("mv a0, %0" : : "r" (func_id));
 352              		.loc 1 71 5
 353              		.loc 1 71 53 is_stmt 0
 354 015c 93072001 		li	a5,18
 355              	#APP
 356              	# 71 "src/syscall_c.cpp" 1
  72              	    __asm__ volatile ("ecall");
 357              		mv a0, a5
 358              	# 0 "" 2
 359              		.loc 1 72 5 is_stmt 1
 360              		.loc 1 72 31 is_stmt 0
 361              	# 72 "src/syscall_c.cpp" 1
  73              	    __asm__ volatile ("mv %0, a0" : "=r" (result));
 362              		ecall
 363              	# 0 "" 2
 364              		.loc 1 73 5 is_stmt 1
 365              		.loc 1 73 51 is_stmt 0
 366              	# 73 "src/syscall_c.cpp" 1
  74              	    return result;
 367              		mv a0, a0
 368              	# 0 "" 2
 369              	.LVL28:
 370              		.loc 1 74 5 is_stmt 1
  75:src/syscall_c.cpp **** }
 371              		.loc 1 75 1 is_stmt 0
 372              	#NO_APP
 373 016c 1B050500 		sext.w	a0,a0
 374              	.LVL29:
 375 0170 03348100 		ld	s0,8(sp)
 376              		.cfi_restore 8
 377              		.cfi_def_cfa 2, 16
 378 0174 13010101 		addi	sp,sp,16
 379              		.cfi_def_cfa_offset 0
 380 0178 67800000 		jr	ra
 381              		.cfi_endproc
 382              	.LFE35:
GAS LISTING /tmp/cc0oCcEx.s 			page 9


 384              		.align	2
 385              		.globl	_Z15thread_dispatchv
 387              	_Z15thread_dispatchv:
 388              	.LFB36:
  76:src/syscall_c.cpp **** 
  77:src/syscall_c.cpp **** void thread_dispatch (){
 389              		.loc 1 77 24 is_stmt 1
 390              		.cfi_startproc
 391 017c 130101FF 		addi	sp,sp,-16
 392              		.cfi_def_cfa_offset 16
 393 0180 23348100 		sd	s0,8(sp)
 394              		.cfi_offset 8, -8
 395 0184 13040101 		addi	s0,sp,16
 396              		.cfi_def_cfa 8, 0
  78:src/syscall_c.cpp ****     uint64 func_id=0x13;
 397              		.loc 1 78 5
 398              	.LVL30:
  79:src/syscall_c.cpp **** 
  80:src/syscall_c.cpp ****     __asm__ volatile ("mv a0, %0" : : "r" (func_id));
 399              		.loc 1 80 5
 400              		.loc 1 80 53 is_stmt 0
 401 0188 93073001 		li	a5,19
 402              	#APP
 403              	# 80 "src/syscall_c.cpp" 1
  81              	    __asm__ volatile ("ecall");
 404              		mv a0, a5
 405              	# 0 "" 2
 406              		.loc 1 81 5 is_stmt 1
 407              		.loc 1 81 31 is_stmt 0
 408              	# 81 "src/syscall_c.cpp" 1
  82              	}
 409              		ecall
 410              	# 0 "" 2
 411              		.loc 1 82 1
 412              	#NO_APP
 413 0194 03348100 		ld	s0,8(sp)
 414              		.cfi_restore 8
 415              		.cfi_def_cfa 2, 16
 416 0198 13010101 		addi	sp,sp,16
 417              		.cfi_def_cfa_offset 0
 418 019c 67800000 		jr	ra
 419              		.cfi_endproc
 420              	.LFE36:
 422              		.align	2
 423              		.globl	_Z11thread_makePP3TCBPFvPvES2_
 425              	_Z11thread_makePP3TCBPFvPvES2_:
 426              	.LFB37:
  83:src/syscall_c.cpp **** 
  84:src/syscall_c.cpp **** int thread_make (thread_t* handle, void(*start_routine)(void*),void* arg){
 427              		.loc 1 84 74 is_stmt 1
 428              		.cfi_startproc
 429              	.LVL31:
  85:src/syscall_c.cpp ****     uint64 func_id=0x14;
 430              		.loc 1 85 5
  86:src/syscall_c.cpp ****     uint64 result;
 431              		.loc 1 86 5
  87:src/syscall_c.cpp **** 
GAS LISTING /tmp/cc0oCcEx.s 			page 10


  88:src/syscall_c.cpp ****     if(handle==nullptr) return -4;
 432              		.loc 1 88 5
 433 01a0 630C0506 		beqz	a0,.L29
  84:src/syscall_c.cpp ****     uint64 func_id=0x14;
 434              		.loc 1 84 74 is_stmt 0
 435 01a4 130101FD 		addi	sp,sp,-48
 436              		.cfi_def_cfa_offset 48
 437 01a8 23341102 		sd	ra,40(sp)
 438 01ac 23308102 		sd	s0,32(sp)
 439 01b0 233C9100 		sd	s1,24(sp)
 440 01b4 23382101 		sd	s2,16(sp)
 441 01b8 23343101 		sd	s3,8(sp)
 442              		.cfi_offset 1, -8
 443              		.cfi_offset 8, -16
 444              		.cfi_offset 9, -24
 445              		.cfi_offset 18, -32
 446              		.cfi_offset 19, -40
 447 01bc 13040103 		addi	s0,sp,48
 448              		.cfi_def_cfa 8, 0
 449 01c0 93040500 		mv	s1,a0
 450 01c4 93890500 		mv	s3,a1
 451 01c8 13090600 		mv	s2,a2
  89:src/syscall_c.cpp ****     void* stack=mem_alloc(DEFAULT_STACK_SIZE * sizeof(uint64));
 452              		.loc 1 89 5 is_stmt 1
 453              		.loc 1 89 26 is_stmt 0
 454 01cc 37850000 		li	a0,32768
 455              	.LVL32:
 456 01d0 97000000 		call	_Z9mem_allocm
 456      E7800000 
 457              	.LVL33:
  90:src/syscall_c.cpp **** 
  91:src/syscall_c.cpp ****     __asm__ volatile ("mv a1, %0" : : "r" (handle));
 458              		.loc 1 91 5 is_stmt 1
 459              		.loc 1 91 52 is_stmt 0
 460              	#APP
 461              	# 91 "src/syscall_c.cpp" 1
  92              	    __asm__ volatile ("mv a2, %0" : : "r" (start_routine));
 462              		mv a1, s1
 463              	# 0 "" 2
 464              		.loc 1 92 5 is_stmt 1
 465              		.loc 1 92 59 is_stmt 0
 466              	# 92 "src/syscall_c.cpp" 1
  93              	    __asm__ volatile ("mv a3, %0" : : "r" (arg));
 467              		mv a2, s3
 468              	# 0 "" 2
 469              		.loc 1 93 5 is_stmt 1
 470              		.loc 1 93 49 is_stmt 0
 471              	# 93 "src/syscall_c.cpp" 1
  94              	    __asm__ volatile ("mv a4, %0" : : "r" (stack));
 472              		mv a3, s2
 473              	# 0 "" 2
 474              		.loc 1 94 5 is_stmt 1
 475              		.loc 1 94 51 is_stmt 0
 476              	# 94 "src/syscall_c.cpp" 1
  95              	
  96:src/syscall_c.cpp ****     __asm__ volatile ("mv a0, %0" : : "r" (func_id));
 477              		mv a4, a0
GAS LISTING /tmp/cc0oCcEx.s 			page 11


 478              	# 0 "" 2
 479              		.loc 1 96 5 is_stmt 1
 480              		.loc 1 96 53 is_stmt 0
 481              	#NO_APP
 482 01e8 93074001 		li	a5,20
 483              	#APP
 484              	# 96 "src/syscall_c.cpp" 1
  97              	    __asm__ volatile ("ecall");
 485              		mv a0, a5
 486              	# 0 "" 2
 487              		.loc 1 97 5 is_stmt 1
 488              		.loc 1 97 31 is_stmt 0
 489              	# 97 "src/syscall_c.cpp" 1
  98              	    __asm__ volatile ("mv %0, a0" : "=r" (result));
 490              		ecall
 491              	# 0 "" 2
 492              		.loc 1 98 5 is_stmt 1
 493              		.loc 1 98 51 is_stmt 0
 494              	# 98 "src/syscall_c.cpp" 1
  99              	    return result;
 495              		mv a0, a0
 496              	# 0 "" 2
 497              	.LVL34:
 498              		.loc 1 99 5 is_stmt 1
 499              		.loc 1 99 12 is_stmt 0
 500              	#NO_APP
 501 01f8 1B050500 		sext.w	a0,a0
 502              	.LVL35:
 100:src/syscall_c.cpp **** }
 503              		.loc 1 100 1
 504 01fc 83308102 		ld	ra,40(sp)
 505              		.cfi_restore 1
 506 0200 03340102 		ld	s0,32(sp)
 507              		.cfi_restore 8
 508              		.cfi_def_cfa 2, 48
 509 0204 83348101 		ld	s1,24(sp)
 510              		.cfi_restore 9
 511              	.LVL36:
 512 0208 03390101 		ld	s2,16(sp)
 513              		.cfi_restore 18
 514              	.LVL37:
 515 020c 83398100 		ld	s3,8(sp)
 516              		.cfi_restore 19
 517              	.LVL38:
 518 0210 13010103 		addi	sp,sp,48
 519              		.cfi_def_cfa_offset 0
 520 0214 67800000 		jr	ra
 521              	.LVL39:
 522              	.L29:
  88:src/syscall_c.cpp ****     void* stack=mem_alloc(DEFAULT_STACK_SIZE * sizeof(uint64));
 523              		.loc 1 88 33
 524 0218 1305C0FF 		li	a0,-4
 525              	.LVL40:
 526              		.loc 1 100 1
 527 021c 67800000 		ret
 528              		.cfi_endproc
 529              	.LFE37:
GAS LISTING /tmp/cc0oCcEx.s 			page 12


 531              		.align	2
 532              		.globl	_Z12thread_startP3TCB
 534              	_Z12thread_startP3TCB:
 535              	.LFB38:
 101:src/syscall_c.cpp **** 
 102:src/syscall_c.cpp **** int thread_start (thread_t handle){
 536              		.loc 1 102 35 is_stmt 1
 537              		.cfi_startproc
 538              	.LVL41:
 103:src/syscall_c.cpp ****     uint64 func_id=0x15;
 539              		.loc 1 103 5
 104:src/syscall_c.cpp ****     uint64 result;
 540              		.loc 1 104 5
 105:src/syscall_c.cpp **** 
 106:src/syscall_c.cpp ****     if(handle==nullptr) return -8;
 541              		.loc 1 106 5
 542 0220 63000504 		beqz	a0,.L36
 102:src/syscall_c.cpp ****     uint64 func_id=0x15;
 543              		.loc 1 102 35 is_stmt 0
 544 0224 130101FF 		addi	sp,sp,-16
 545              		.cfi_def_cfa_offset 16
 546 0228 23341100 		sd	ra,8(sp)
 547 022c 23308100 		sd	s0,0(sp)
 548              		.cfi_offset 1, -8
 549              		.cfi_offset 8, -16
 550 0230 13040101 		addi	s0,sp,16
 551              		.cfi_def_cfa 8, 0
 107:src/syscall_c.cpp **** 
 108:src/syscall_c.cpp ****     move_regs();
 552              		.loc 1 108 5 is_stmt 1
 553              		.loc 1 108 14 is_stmt 0
 554 0234 97000000 		call	_Z9move_regsv
 554      E7800000 
 555              	.LVL42:
 109:src/syscall_c.cpp ****     __asm__ volatile ("mv a0, %0" : : "r" (func_id));
 556              		.loc 1 109 5 is_stmt 1
 557              		.loc 1 109 53 is_stmt 0
 558 023c 93075001 		li	a5,21
 559              	#APP
 560              	# 109 "src/syscall_c.cpp" 1
 110              	    __asm__ volatile ("ecall");
 561              		mv a0, a5
 562              	# 0 "" 2
 563              		.loc 1 110 5 is_stmt 1
 564              		.loc 1 110 31 is_stmt 0
 565              	# 110 "src/syscall_c.cpp" 1
 111              	    __asm__ volatile ("mv %0, a0" : "=r" (result));
 566              		ecall
 567              	# 0 "" 2
 568              		.loc 1 111 5 is_stmt 1
 569              		.loc 1 111 51 is_stmt 0
 570              	# 111 "src/syscall_c.cpp" 1
 112              	    return result;
 571              		mv a0, a0
 572              	# 0 "" 2
 573              	.LVL43:
 574              		.loc 1 112 5 is_stmt 1
GAS LISTING /tmp/cc0oCcEx.s 			page 13


 575              		.loc 1 112 12 is_stmt 0
 576              	#NO_APP
 577 024c 1B050500 		sext.w	a0,a0
 578              	.LVL44:
 113:src/syscall_c.cpp **** }
 579              		.loc 1 113 1
 580 0250 83308100 		ld	ra,8(sp)
 581              		.cfi_restore 1
 582 0254 03340100 		ld	s0,0(sp)
 583              		.cfi_restore 8
 584              		.cfi_def_cfa 2, 16
 585 0258 13010101 		addi	sp,sp,16
 586              		.cfi_def_cfa_offset 0
 587 025c 67800000 		jr	ra
 588              	.LVL45:
 589              	.L36:
 106:src/syscall_c.cpp **** 
 590              		.loc 1 106 33
 591 0260 130580FF 		li	a0,-8
 592              	.LVL46:
 593              		.loc 1 113 1
 594 0264 67800000 		ret
 595              		.cfi_endproc
 596              	.LFE38:
 598              		.align	2
 599              		.globl	_Z8sem_openPP4_semj
 601              	_Z8sem_openPP4_semj:
 602              	.LFB39:
 114:src/syscall_c.cpp **** 
 115:src/syscall_c.cpp **** //==========[SEMS]=============================================================
 116:src/syscall_c.cpp **** int sem_open (sem_t* handle, unsigned init){
 603              		.loc 1 116 44 is_stmt 1
 604              		.cfi_startproc
 605              	.LVL47:
 117:src/syscall_c.cpp ****     uint64 func_id=0x21;
 606              		.loc 1 117 5
 118:src/syscall_c.cpp ****     uint64 result;
 607              		.loc 1 118 5
 119:src/syscall_c.cpp **** 
 120:src/syscall_c.cpp ****     if(!handle) return -2;
 608              		.loc 1 120 5
 609 0268 63000504 		beqz	a0,.L43
 116:src/syscall_c.cpp ****     uint64 func_id=0x21;
 610              		.loc 1 116 44 is_stmt 0
 611 026c 130101FF 		addi	sp,sp,-16
 612              		.cfi_def_cfa_offset 16
 613 0270 23341100 		sd	ra,8(sp)
 614 0274 23308100 		sd	s0,0(sp)
 615              		.cfi_offset 1, -8
 616              		.cfi_offset 8, -16
 617 0278 13040101 		addi	s0,sp,16
 618              		.cfi_def_cfa 8, 0
 121:src/syscall_c.cpp ****     move_regs();
 619              		.loc 1 121 5 is_stmt 1
 620              		.loc 1 121 14 is_stmt 0
 621 027c 97000000 		call	_Z9move_regsv
 621      E7800000 
GAS LISTING /tmp/cc0oCcEx.s 			page 14


 622              	.LVL48:
 122:src/syscall_c.cpp ****     __asm__ volatile ("mv a0, %0" : : "r" (func_id));
 623              		.loc 1 122 5 is_stmt 1
 624              		.loc 1 122 53 is_stmt 0
 625 0284 93071002 		li	a5,33
 626              	#APP
 627              	# 122 "src/syscall_c.cpp" 1
 123              	    __asm__ volatile ("ecall");
 628              		mv a0, a5
 629              	# 0 "" 2
 630              		.loc 1 123 5 is_stmt 1
 631              		.loc 1 123 31 is_stmt 0
 632              	# 123 "src/syscall_c.cpp" 1
 124              	    __asm__ volatile ("mv %0, a0" : "=r" (result));
 633              		ecall
 634              	# 0 "" 2
 635              		.loc 1 124 5 is_stmt 1
 636              		.loc 1 124 51 is_stmt 0
 637              	# 124 "src/syscall_c.cpp" 1
 125              	    return result;
 638              		mv a0, a0
 639              	# 0 "" 2
 640              	.LVL49:
 641              		.loc 1 125 5 is_stmt 1
 642              		.loc 1 125 12 is_stmt 0
 643              	#NO_APP
 644 0294 1B050500 		sext.w	a0,a0
 645              	.LVL50:
 126:src/syscall_c.cpp **** }
 646              		.loc 1 126 1
 647 0298 83308100 		ld	ra,8(sp)
 648              		.cfi_restore 1
 649 029c 03340100 		ld	s0,0(sp)
 650              		.cfi_restore 8
 651              		.cfi_def_cfa 2, 16
 652 02a0 13010101 		addi	sp,sp,16
 653              		.cfi_def_cfa_offset 0
 654 02a4 67800000 		jr	ra
 655              	.LVL51:
 656              	.L43:
 120:src/syscall_c.cpp ****     move_regs();
 657              		.loc 1 120 25
 658 02a8 1305E0FF 		li	a0,-2
 659              	.LVL52:
 660              		.loc 1 126 1
 661 02ac 67800000 		ret
 662              		.cfi_endproc
 663              	.LFE39:
 665              		.align	2
 666              		.globl	_Z9sem_closeP4_sem
 668              	_Z9sem_closeP4_sem:
 669              	.LFB40:
 127:src/syscall_c.cpp **** 
 128:src/syscall_c.cpp **** int sem_close (sem_t handle){
 670              		.loc 1 128 29 is_stmt 1
 671              		.cfi_startproc
 672              	.LVL53:
GAS LISTING /tmp/cc0oCcEx.s 			page 15


 129:src/syscall_c.cpp ****     uint64 func_id=0x22;
 673              		.loc 1 129 5
 130:src/syscall_c.cpp ****     uint64 result;
 674              		.loc 1 130 5
 131:src/syscall_c.cpp **** 
 132:src/syscall_c.cpp ****     if(handle==nullptr) return -16;
 675              		.loc 1 132 5
 676 02b0 63000504 		beqz	a0,.L50
 128:src/syscall_c.cpp ****     uint64 func_id=0x22;
 677              		.loc 1 128 29 is_stmt 0
 678 02b4 130101FF 		addi	sp,sp,-16
 679              		.cfi_def_cfa_offset 16
 680 02b8 23341100 		sd	ra,8(sp)
 681 02bc 23308100 		sd	s0,0(sp)
 682              		.cfi_offset 1, -8
 683              		.cfi_offset 8, -16
 684 02c0 13040101 		addi	s0,sp,16
 685              		.cfi_def_cfa 8, 0
 133:src/syscall_c.cpp ****     move_regs();
 686              		.loc 1 133 5 is_stmt 1
 687              		.loc 1 133 14 is_stmt 0
 688 02c4 97000000 		call	_Z9move_regsv
 688      E7800000 
 689              	.LVL54:
 134:src/syscall_c.cpp ****     __asm__ volatile ("mv a0, %0" : : "r" (func_id));
 690              		.loc 1 134 5 is_stmt 1
 691              		.loc 1 134 53 is_stmt 0
 692 02cc 93072002 		li	a5,34
 693              	#APP
 694              	# 134 "src/syscall_c.cpp" 1
 135              	    __asm__ volatile ("ecall");
 695              		mv a0, a5
 696              	# 0 "" 2
 697              		.loc 1 135 5 is_stmt 1
 698              		.loc 1 135 31 is_stmt 0
 699              	# 135 "src/syscall_c.cpp" 1
 136              	    __asm__ volatile ("mv %0, a0" : "=r" (result));
 700              		ecall
 701              	# 0 "" 2
 702              		.loc 1 136 5 is_stmt 1
 703              		.loc 1 136 51 is_stmt 0
 704              	# 136 "src/syscall_c.cpp" 1
 137              	    return result;
 705              		mv a0, a0
 706              	# 0 "" 2
 707              	.LVL55:
 708              		.loc 1 137 5 is_stmt 1
 709              		.loc 1 137 12 is_stmt 0
 710              	#NO_APP
 711 02dc 1B050500 		sext.w	a0,a0
 712              	.LVL56:
 138:src/syscall_c.cpp **** }
 713              		.loc 1 138 1
 714 02e0 83308100 		ld	ra,8(sp)
 715              		.cfi_restore 1
 716 02e4 03340100 		ld	s0,0(sp)
 717              		.cfi_restore 8
GAS LISTING /tmp/cc0oCcEx.s 			page 16


 718              		.cfi_def_cfa 2, 16
 719 02e8 13010101 		addi	sp,sp,16
 720              		.cfi_def_cfa_offset 0
 721 02ec 67800000 		jr	ra
 722              	.LVL57:
 723              	.L50:
 132:src/syscall_c.cpp ****     move_regs();
 724              		.loc 1 132 33
 725 02f0 130500FF 		li	a0,-16
 726              	.LVL58:
 727              		.loc 1 138 1
 728 02f4 67800000 		ret
 729              		.cfi_endproc
 730              	.LFE40:
 732              		.align	2
 733              		.globl	_Z8sem_waitP4_sem
 735              	_Z8sem_waitP4_sem:
 736              	.LFB41:
 139:src/syscall_c.cpp **** 
 140:src/syscall_c.cpp **** int sem_wait (sem_t id){
 737              		.loc 1 140 24 is_stmt 1
 738              		.cfi_startproc
 739              	.LVL59:
 141:src/syscall_c.cpp ****     uint64 func_id=0x23;
 740              		.loc 1 141 5
 142:src/syscall_c.cpp ****     uint64 result;
 741              		.loc 1 142 5
 143:src/syscall_c.cpp **** 
 144:src/syscall_c.cpp ****     if(id==nullptr) return -16;
 742              		.loc 1 144 5
 743 02f8 63000504 		beqz	a0,.L57
 140:src/syscall_c.cpp ****     uint64 func_id=0x23;
 744              		.loc 1 140 24 is_stmt 0
 745 02fc 130101FF 		addi	sp,sp,-16
 746              		.cfi_def_cfa_offset 16
 747 0300 23341100 		sd	ra,8(sp)
 748 0304 23308100 		sd	s0,0(sp)
 749              		.cfi_offset 1, -8
 750              		.cfi_offset 8, -16
 751 0308 13040101 		addi	s0,sp,16
 752              		.cfi_def_cfa 8, 0
 145:src/syscall_c.cpp ****     move_regs();
 753              		.loc 1 145 5 is_stmt 1
 754              		.loc 1 145 14 is_stmt 0
 755 030c 97000000 		call	_Z9move_regsv
 755      E7800000 
 756              	.LVL60:
 146:src/syscall_c.cpp ****     __asm__ volatile ("mv a0, %0" : : "r" (func_id));
 757              		.loc 1 146 5 is_stmt 1
 758              		.loc 1 146 53 is_stmt 0
 759 0314 93073002 		li	a5,35
 760              	#APP
 761              	# 146 "src/syscall_c.cpp" 1
 147              	    __asm__ volatile ("ecall");
 762              		mv a0, a5
 763              	# 0 "" 2
 764              		.loc 1 147 5 is_stmt 1
GAS LISTING /tmp/cc0oCcEx.s 			page 17


 765              		.loc 1 147 31 is_stmt 0
 766              	# 147 "src/syscall_c.cpp" 1
 148              	    __asm__ volatile ("mv %0, a0" : "=r" (result));
 767              		ecall
 768              	# 0 "" 2
 769              		.loc 1 148 5 is_stmt 1
 770              		.loc 1 148 51 is_stmt 0
 771              	# 148 "src/syscall_c.cpp" 1
 149              	    return result;
 772              		mv a0, a0
 773              	# 0 "" 2
 774              	.LVL61:
 775              		.loc 1 149 5 is_stmt 1
 776              		.loc 1 149 12 is_stmt 0
 777              	#NO_APP
 778 0324 1B050500 		sext.w	a0,a0
 779              	.LVL62:
 150:src/syscall_c.cpp **** }
 780              		.loc 1 150 1
 781 0328 83308100 		ld	ra,8(sp)
 782              		.cfi_restore 1
 783 032c 03340100 		ld	s0,0(sp)
 784              		.cfi_restore 8
 785              		.cfi_def_cfa 2, 16
 786 0330 13010101 		addi	sp,sp,16
 787              		.cfi_def_cfa_offset 0
 788 0334 67800000 		jr	ra
 789              	.LVL63:
 790              	.L57:
 144:src/syscall_c.cpp ****     move_regs();
 791              		.loc 1 144 29
 792 0338 130500FF 		li	a0,-16
 793              	.LVL64:
 794              		.loc 1 150 1
 795 033c 67800000 		ret
 796              		.cfi_endproc
 797              	.LFE41:
 799              		.align	2
 800              		.globl	_Z10sem_signalP4_sem
 802              	_Z10sem_signalP4_sem:
 803              	.LFB42:
 151:src/syscall_c.cpp **** 
 152:src/syscall_c.cpp **** int sem_signal (sem_t id) {
 804              		.loc 1 152 27 is_stmt 1
 805              		.cfi_startproc
 806              	.LVL65:
 153:src/syscall_c.cpp ****     uint64 func_id=0x24;
 807              		.loc 1 153 5
 154:src/syscall_c.cpp ****     uint64 result;
 808              		.loc 1 154 5
 155:src/syscall_c.cpp **** 
 156:src/syscall_c.cpp ****     if(id==nullptr) return -16;
 809              		.loc 1 156 5
 810 0340 63000504 		beqz	a0,.L64
 152:src/syscall_c.cpp ****     uint64 func_id=0x24;
 811              		.loc 1 152 27 is_stmt 0
 812 0344 130101FF 		addi	sp,sp,-16
GAS LISTING /tmp/cc0oCcEx.s 			page 18


 813              		.cfi_def_cfa_offset 16
 814 0348 23341100 		sd	ra,8(sp)
 815 034c 23308100 		sd	s0,0(sp)
 816              		.cfi_offset 1, -8
 817              		.cfi_offset 8, -16
 818 0350 13040101 		addi	s0,sp,16
 819              		.cfi_def_cfa 8, 0
 157:src/syscall_c.cpp ****     move_regs();
 820              		.loc 1 157 5 is_stmt 1
 821              		.loc 1 157 14 is_stmt 0
 822 0354 97000000 		call	_Z9move_regsv
 822      E7800000 
 823              	.LVL66:
 158:src/syscall_c.cpp ****     __asm__ volatile ("mv a0, %0" : : "r" (func_id));
 824              		.loc 1 158 5 is_stmt 1
 825              		.loc 1 158 53 is_stmt 0
 826 035c 93074002 		li	a5,36
 827              	#APP
 828              	# 158 "src/syscall_c.cpp" 1
 159              	    __asm__ volatile ("ecall");
 829              		mv a0, a5
 830              	# 0 "" 2
 831              		.loc 1 159 5 is_stmt 1
 832              		.loc 1 159 31 is_stmt 0
 833              	# 159 "src/syscall_c.cpp" 1
 160              	    __asm__ volatile ("mv %0, a0" : "=r" (result));
 834              		ecall
 835              	# 0 "" 2
 836              		.loc 1 160 5 is_stmt 1
 837              		.loc 1 160 51 is_stmt 0
 838              	# 160 "src/syscall_c.cpp" 1
 161              	    return result;
 839              		mv a0, a0
 840              	# 0 "" 2
 841              	.LVL67:
 842              		.loc 1 161 5 is_stmt 1
 843              		.loc 1 161 12 is_stmt 0
 844              	#NO_APP
 845 036c 1B050500 		sext.w	a0,a0
 846              	.LVL68:
 162:src/syscall_c.cpp **** }
 847              		.loc 1 162 1
 848 0370 83308100 		ld	ra,8(sp)
 849              		.cfi_restore 1
 850 0374 03340100 		ld	s0,0(sp)
 851              		.cfi_restore 8
 852              		.cfi_def_cfa 2, 16
 853 0378 13010101 		addi	sp,sp,16
 854              		.cfi_def_cfa_offset 0
 855 037c 67800000 		jr	ra
 856              	.LVL69:
 857              	.L64:
 156:src/syscall_c.cpp ****     move_regs();
 858              		.loc 1 156 29
 859 0380 130500FF 		li	a0,-16
 860              	.LVL70:
 861              		.loc 1 162 1
GAS LISTING /tmp/cc0oCcEx.s 			page 19


 862 0384 67800000 		ret
 863              		.cfi_endproc
 864              	.LFE42:
 866              		.align	2
 867              		.globl	_Z10time_sleepm
 869              	_Z10time_sleepm:
 870              	.LFB43:
 163:src/syscall_c.cpp **** 
 164:src/syscall_c.cpp **** //==========[MISC]=============================================================
 165:src/syscall_c.cpp **** 
 166:src/syscall_c.cpp **** int time_sleep (time_t t){
 871              		.loc 1 166 26 is_stmt 1
 872              		.cfi_startproc
 873              	.LVL71:
 874 0388 130101FF 		addi	sp,sp,-16
 875              		.cfi_def_cfa_offset 16
 876 038c 23341100 		sd	ra,8(sp)
 877 0390 23308100 		sd	s0,0(sp)
 878              		.cfi_offset 1, -8
 879              		.cfi_offset 8, -16
 880 0394 13040101 		addi	s0,sp,16
 881              		.cfi_def_cfa 8, 0
 167:src/syscall_c.cpp ****     uint64 func_id=0x31;
 882              		.loc 1 167 5
 883              	.LVL72:
 168:src/syscall_c.cpp ****     uint64 result;
 884              		.loc 1 168 5
 169:src/syscall_c.cpp **** 
 170:src/syscall_c.cpp ****     move_regs();
 885              		.loc 1 170 5
 886              		.loc 1 170 14 is_stmt 0
 887 0398 97000000 		call	_Z9move_regsv
 887      E7800000 
 888              	.LVL73:
 171:src/syscall_c.cpp ****     __asm__ volatile ("mv a0, %0" : : "r" (func_id));
 889              		.loc 1 171 5 is_stmt 1
 890              		.loc 1 171 53 is_stmt 0
 891 03a0 93071003 		li	a5,49
 892              	#APP
 893              	# 171 "src/syscall_c.cpp" 1
 172              	    __asm__ volatile ("ecall");
 894              		mv a0, a5
 895              	# 0 "" 2
 896              		.loc 1 172 5 is_stmt 1
 897              		.loc 1 172 31 is_stmt 0
 898              	# 172 "src/syscall_c.cpp" 1
 173              	    __asm__ volatile ("mv %0, a0" : "=r" (result));
 899              		ecall
 900              	# 0 "" 2
 901              		.loc 1 173 5 is_stmt 1
 902              		.loc 1 173 51 is_stmt 0
 903              	# 173 "src/syscall_c.cpp" 1
 174              	    return result;
 904              		mv a0, a0
 905              	# 0 "" 2
 906              	.LVL74:
 907              		.loc 1 174 5 is_stmt 1
GAS LISTING /tmp/cc0oCcEx.s 			page 20


 175:src/syscall_c.cpp **** }
 908              		.loc 1 175 1 is_stmt 0
 909              	#NO_APP
 910 03b0 1B050500 		sext.w	a0,a0
 911              	.LVL75:
 912 03b4 83308100 		ld	ra,8(sp)
 913              		.cfi_restore 1
 914 03b8 03340100 		ld	s0,0(sp)
 915              		.cfi_restore 8
 916              		.cfi_def_cfa 2, 16
 917 03bc 13010101 		addi	sp,sp,16
 918              		.cfi_def_cfa_offset 0
 919 03c0 67800000 		jr	ra
 920              		.cfi_endproc
 921              	.LFE43:
 923              		.align	2
 924              		.globl	_Z4getcv
 926              	_Z4getcv:
 927              	.LFB44:
 176:src/syscall_c.cpp **** 
 177:src/syscall_c.cpp **** char getc(){
 928              		.loc 1 177 12 is_stmt 1
 929              		.cfi_startproc
 930 03c4 130101FF 		addi	sp,sp,-16
 931              		.cfi_def_cfa_offset 16
 932 03c8 23348100 		sd	s0,8(sp)
 933              		.cfi_offset 8, -8
 934 03cc 13040101 		addi	s0,sp,16
 935              		.cfi_def_cfa 8, 0
 178:src/syscall_c.cpp ****     uint64 func_id=0x41;
 936              		.loc 1 178 5
 937              	.LVL76:
 179:src/syscall_c.cpp ****     uint64 result;
 938              		.loc 1 179 5
 180:src/syscall_c.cpp **** 
 181:src/syscall_c.cpp ****     __asm__ volatile ("mv a0, %0" : : "r" (func_id));
 939              		.loc 1 181 5
 940              		.loc 1 181 53 is_stmt 0
 941 03d0 93071004 		li	a5,65
 942              	#APP
 943              	# 181 "src/syscall_c.cpp" 1
 182              	    __asm__ volatile ("ecall");
 944              		mv a0, a5
 945              	# 0 "" 2
 946              		.loc 1 182 5 is_stmt 1
 947              		.loc 1 182 31 is_stmt 0
 948              	# 182 "src/syscall_c.cpp" 1
 183              	    __asm__ volatile ("mv %0, a0" : "=r" (result));
 949              		ecall
 950              	# 0 "" 2
 951              		.loc 1 183 5 is_stmt 1
 952              		.loc 1 183 51 is_stmt 0
 953              	# 183 "src/syscall_c.cpp" 1
 184              	    return (char)result;
 954              		mv a0, a0
 955              	# 0 "" 2
 956              	.LVL77:
GAS LISTING /tmp/cc0oCcEx.s 			page 21


 957              		.loc 1 184 5 is_stmt 1
 185:src/syscall_c.cpp **** }
 958              		.loc 1 185 1 is_stmt 0
 959              	#NO_APP
 960 03e0 1375F50F 		andi	a0,a0,0xff
 961              	.LVL78:
 962 03e4 03348100 		ld	s0,8(sp)
 963              		.cfi_restore 8
 964              		.cfi_def_cfa 2, 16
 965 03e8 13010101 		addi	sp,sp,16
 966              		.cfi_def_cfa_offset 0
 967 03ec 67800000 		jr	ra
 968              		.cfi_endproc
 969              	.LFE44:
 971              		.align	2
 972              		.globl	_Z4putcc
 974              	_Z4putcc:
 975              	.LFB45:
 186:src/syscall_c.cpp **** 
 187:src/syscall_c.cpp **** void putc(char c){
 976              		.loc 1 187 18 is_stmt 1
 977              		.cfi_startproc
 978              	.LVL79:
 979 03f0 130101FF 		addi	sp,sp,-16
 980              		.cfi_def_cfa_offset 16
 981 03f4 23341100 		sd	ra,8(sp)
 982 03f8 23308100 		sd	s0,0(sp)
 983              		.cfi_offset 1, -8
 984              		.cfi_offset 8, -16
 985 03fc 13040101 		addi	s0,sp,16
 986              		.cfi_def_cfa 8, 0
 188:src/syscall_c.cpp ****     uint64 func_id=0x42;
 987              		.loc 1 188 5
 988              	.LVL80:
 189:src/syscall_c.cpp **** 
 190:src/syscall_c.cpp ****     move_regs();
 989              		.loc 1 190 5
 990              		.loc 1 190 14 is_stmt 0
 991 0400 97000000 		call	_Z9move_regsv
 991      E7800000 
 992              	.LVL81:
 191:src/syscall_c.cpp ****     __asm__ volatile ("mv a0, %0" : : "r" (func_id));
 993              		.loc 1 191 5 is_stmt 1
 994              		.loc 1 191 53 is_stmt 0
 995 0408 93072004 		li	a5,66
 996              	#APP
 997              	# 191 "src/syscall_c.cpp" 1
 192              	    __asm__ volatile ("ecall");
 998              		mv a0, a5
 999              	# 0 "" 2
 1000              		.loc 1 192 5 is_stmt 1
 1001              		.loc 1 192 31 is_stmt 0
 1002              	# 192 "src/syscall_c.cpp" 1
 193              	}
 1003              		ecall
 1004              	# 0 "" 2
 1005              		.loc 1 193 1
GAS LISTING /tmp/cc0oCcEx.s 			page 22


 1006              	#NO_APP
 1007 0414 83308100 		ld	ra,8(sp)
 1008              		.cfi_restore 1
 1009 0418 03340100 		ld	s0,0(sp)
 1010              		.cfi_restore 8
 1011              		.cfi_def_cfa 2, 16
 1012 041c 13010101 		addi	sp,sp,16
 1013              		.cfi_def_cfa_offset 0
 1014 0420 67800000 		jr	ra
 1015              		.cfi_endproc
 1016              	.LFE45:
 1018              		.align	2
 1019              		.globl	_Z17test_function_abiii
 1021              	_Z17test_function_abiii:
 1022              	.LFB46:
 194:src/syscall_c.cpp **** 
 195:src/syscall_c.cpp **** 
 196:src/syscall_c.cpp **** int test_function_abi(int param1, int param2){
 1023              		.loc 1 196 46 is_stmt 1
 1024              		.cfi_startproc
 1025              	.LVL82:
 1026 0424 130101FF 		addi	sp,sp,-16
 1027              		.cfi_def_cfa_offset 16
 1028 0428 23341100 		sd	ra,8(sp)
 1029 042c 23308100 		sd	s0,0(sp)
 1030              		.cfi_offset 1, -8
 1031              		.cfi_offset 8, -16
 1032 0430 13040101 		addi	s0,sp,16
 1033              		.cfi_def_cfa 8, 0
 197:src/syscall_c.cpp ****     uint64 func_id=0x69;
 1034              		.loc 1 197 5
 1035              	.LVL83:
 198:src/syscall_c.cpp ****     uint64 result;
 1036              		.loc 1 198 5
 199:src/syscall_c.cpp **** 
 200:src/syscall_c.cpp ****     move_regs();
 1037              		.loc 1 200 5
 1038              		.loc 1 200 14 is_stmt 0
 1039 0434 97000000 		call	_Z9move_regsv
 1039      E7800000 
 1040              	.LVL84:
 201:src/syscall_c.cpp ****     __asm__ volatile ("mv a0, %0" : : "r" (func_id));
 1041              		.loc 1 201 5 is_stmt 1
 1042              		.loc 1 201 53 is_stmt 0
 1043 043c 93079006 		li	a5,105
 1044              	#APP
 1045              	# 201 "src/syscall_c.cpp" 1
 202              	    __asm__ volatile ("ecall");
 1046              		mv a0, a5
 1047              	# 0 "" 2
 1048              		.loc 1 202 5 is_stmt 1
 1049              		.loc 1 202 31 is_stmt 0
 1050              	# 202 "src/syscall_c.cpp" 1
 203              	    __asm__ volatile ("mv %0, a0" : "=r" (result));
 1051              		ecall
 1052              	# 0 "" 2
 1053              		.loc 1 203 5 is_stmt 1
GAS LISTING /tmp/cc0oCcEx.s 			page 23


 1054              		.loc 1 203 51 is_stmt 0
 1055              	# 203 "src/syscall_c.cpp" 1
 204              	    return result;
 1056              		mv a0, a0
 1057              	# 0 "" 2
 1058              	.LVL85:
 1059              		.loc 1 204 5 is_stmt 1
 205:src/syscall_c.cpp **** }...
 1060              		.loc 1 205 1 is_stmt 0
 1061              	#NO_APP
 1062 044c 1B050500 		sext.w	a0,a0
 1063              	.LVL86:
 1064 0450 83308100 		ld	ra,8(sp)
 1065              		.cfi_restore 1
 1066 0454 03340100 		ld	s0,0(sp)
 1067              		.cfi_restore 8
 1068              		.cfi_def_cfa 2, 16
 1069 0458 13010101 		addi	sp,sp,16
 1070              		.cfi_def_cfa_offset 0
 1071 045c 67800000 		jr	ra
 1072              		.cfi_endproc
 1073              	.LFE46:
 1075              	.Letext0:
 1076              		.file 2 "src/../h/../lib/hw.h"
 1077              		.file 3 "src/../h/../h/list.hpp"
 1078              		.file 4 "src/../h/../h/tcb.hpp"
 1079              		.file 5 "src/../h/syscall_c.h"
GAS LISTING /tmp/cc0oCcEx.s 			page 24

