GAS LISTING /tmp/cc6njoen.s 			page 1


   1              		.file	"Thread.cpp"
   2              		.option pic
   3              		.option norelax
   4              		.text
   5              	.Ltext0:
   6              		.section	.text._ZN6Thread3runEv,"axG",@progbits,_ZN6Thread3runEv,comdat
   7              		.align	2
   8              		.weak	_ZN6Thread3runEv
  10              	_ZN6Thread3runEv:
  11              	.LFB31:
  12              		.file 1 "src/../h/syscall_cpp.hpp"
   1:src/../h/syscall_cpp.hpp **** //
   2:src/../h/syscall_cpp.hpp **** // Created by DjordjeS on 31.7.2022.
   3:src/../h/syscall_cpp.hpp **** //
   4:src/../h/syscall_cpp.hpp **** 
   5:src/../h/syscall_cpp.hpp **** #ifndef _syscall_cpp
   6:src/../h/syscall_cpp.hpp **** #define _syscall_cpp
   7:src/../h/syscall_cpp.hpp **** 
   8:src/../h/syscall_cpp.hpp **** #include "syscall_c.h"
   9:src/../h/syscall_cpp.hpp **** 
  10:src/../h/syscall_cpp.hpp **** void* operator new (size_t);
  11:src/../h/syscall_cpp.hpp **** void operator delete (void*);
  12:src/../h/syscall_cpp.hpp **** 
  13:src/../h/syscall_cpp.hpp **** class Thread {
  14:src/../h/syscall_cpp.hpp **** public:
  15:src/../h/syscall_cpp.hpp ****     Thread (void (*body)(void*), void* arg);
  16:src/../h/syscall_cpp.hpp ****     virtual ~Thread ();
  17:src/../h/syscall_cpp.hpp ****     int start ();
  18:src/../h/syscall_cpp.hpp ****     static void dispatch ();
  19:src/../h/syscall_cpp.hpp ****     static int sleep (time_t);
  20:src/../h/syscall_cpp.hpp ****     static void threadWrapper(void*);
  21:src/../h/syscall_cpp.hpp **** 
  22:src/../h/syscall_cpp.hpp **** protected:
  23:src/../h/syscall_cpp.hpp ****     Thread ();
  24:src/../h/syscall_cpp.hpp ****     virtual void run () {}
  13              		.loc 1 24 18
  14              		.cfi_startproc
  15              	.LVL0:
  16 0000 130101FF 		addi	sp,sp,-16
  17              		.cfi_def_cfa_offset 16
  18 0004 23348100 		sd	s0,8(sp)
  19              		.cfi_offset 8, -8
  20 0008 13040101 		addi	s0,sp,16
  21              		.cfi_def_cfa 8, 0
  22              		.loc 1 24 26 is_stmt 0
  23 000c 03348100 		ld	s0,8(sp)
  24              		.cfi_restore 8
  25              		.cfi_def_cfa 2, 16
  26 0010 13010101 		addi	sp,sp,16
  27              		.cfi_def_cfa_offset 0
  28 0014 67800000 		jr	ra
  29              		.cfi_endproc
  30              	.LFE31:
  32              		.text
  33              		.align	2
  34              		.globl	_ZN6Thread13threadWrapperEPv
  36              	_ZN6Thread13threadWrapperEPv:
GAS LISTING /tmp/cc6njoen.s 			page 2


  37              	.LFB43:
  38              		.file 2 "src/Thread.cpp"
   1:src/Thread.cpp **** //
   2:src/Thread.cpp **** // Created by DjordjeS on 1.8.2022.
   3:src/Thread.cpp **** //
   4:src/Thread.cpp **** 
   5:src/Thread.cpp **** #include "../h/syscall_cpp.hpp"
   6:src/Thread.cpp **** 
   7:src/Thread.cpp **** Thread::Thread(void (*body)(void *), void *arg) {
   8:src/Thread.cpp ****     thread_make(&myHandle, body, arg);
   9:src/Thread.cpp **** }
  10:src/Thread.cpp **** 
  11:src/Thread.cpp **** Thread::~Thread() {
  12:src/Thread.cpp ****     delete myHandle;
  13:src/Thread.cpp **** }
  14:src/Thread.cpp **** 
  15:src/Thread.cpp **** int Thread::start() {
  16:src/Thread.cpp ****     return thread_start(myHandle);
  17:src/Thread.cpp **** }
  18:src/Thread.cpp **** 
  19:src/Thread.cpp **** void Thread::dispatch() {
  20:src/Thread.cpp ****     thread_dispatch();
  21:src/Thread.cpp **** }
  22:src/Thread.cpp **** 
  23:src/Thread.cpp **** int Thread::sleep(time_t t) {
  24:src/Thread.cpp ****     return time_sleep(t);
  25:src/Thread.cpp **** }
  26:src/Thread.cpp **** 
  27:src/Thread.cpp **** void Thread::threadWrapper(void* t) {
  39              		.loc 2 27 37 is_stmt 1
  40              		.cfi_startproc
  41              	.LVL1:
  28:src/Thread.cpp ****     if(t){
  42              		.loc 2 28 5
  43 0000 63080502 		beqz	a0,.L6
  27:src/Thread.cpp ****     if(t){
  44              		.loc 2 27 37 is_stmt 0
  45 0004 130101FF 		addi	sp,sp,-16
  46              		.cfi_def_cfa_offset 16
  47 0008 23341100 		sd	ra,8(sp)
  48 000c 23308100 		sd	s0,0(sp)
  49              		.cfi_offset 1, -8
  50              		.cfi_offset 8, -16
  51 0010 13040101 		addi	s0,sp,16
  52              		.cfi_def_cfa 8, 0
  29:src/Thread.cpp ****         ((Thread*)t)->run();
  53              		.loc 2 29 9 is_stmt 1
  54              		.loc 2 29 27 is_stmt 0
  55 0014 83370500 		ld	a5,0(a0)
  56 0018 83B70701 		ld	a5,16(a5)
  57              		.loc 2 29 26
  58 001c E7800700 		jalr	a5
  59              	.LVL2:
  30:src/Thread.cpp ****     }
  31:src/Thread.cpp **** }
  60              		.loc 2 31 1
  61 0020 83308100 		ld	ra,8(sp)
GAS LISTING /tmp/cc6njoen.s 			page 3


  62              		.cfi_restore 1
  63 0024 03340100 		ld	s0,0(sp)
  64              		.cfi_restore 8
  65              		.cfi_def_cfa 2, 16
  66 0028 13010101 		addi	sp,sp,16
  67              		.cfi_def_cfa_offset 0
  68 002c 67800000 		jr	ra
  69              	.LVL3:
  70              	.L6:
  71 0030 67800000 		ret
  72              		.cfi_endproc
  73              	.LFE43:
  75              		.align	2
  76              		.globl	_ZN6ThreadD2Ev
  78              	_ZN6ThreadD2Ev:
  79              	.LFB37:
  11:src/Thread.cpp ****     delete myHandle;
  80              		.loc 2 11 1 is_stmt 1
  81              		.cfi_startproc
  82              		.cfi_personality 0x9b,DW.ref.__gxx_personality_v0
  83              		.cfi_lsda 0x1b,.LLSDA37
  84              	.LVL4:
  85 0034 130101FE 		addi	sp,sp,-32
  86              		.cfi_def_cfa_offset 32
  87 0038 233C1100 		sd	ra,24(sp)
  88 003c 23388100 		sd	s0,16(sp)
  89 0040 23349100 		sd	s1,8(sp)
  90              		.cfi_offset 1, -8
  91              		.cfi_offset 8, -16
  92              		.cfi_offset 9, -24
  93 0044 13040102 		addi	s0,sp,32
  94              		.cfi_def_cfa 8, 0
  95              	.LBB5:
  11:src/Thread.cpp ****     delete myHandle;
  96              		.loc 2 11 17 is_stmt 0
  97 0048 97070000 		lla	a5,_ZTV6Thread+16
  97      93870700 
  98 0050 2330F500 		sd	a5,0(a0)
  12:src/Thread.cpp **** }
  99              		.loc 2 12 5 is_stmt 1
  12:src/Thread.cpp **** }
 100              		.loc 2 12 12 is_stmt 0
 101 0054 83348500 		ld	s1,8(a0)
  12:src/Thread.cpp **** }
 102              		.loc 2 12 20
 103 0058 638E0400 		beqz	s1,.L9
  12:src/Thread.cpp **** }
 104              		.loc 2 12 12 discriminator 1
 105 005c 13850400 		mv	a0,s1
 106              	.LVL5:
 107 0060 97000000 		call	_ZN3TCBD1Ev@plt
 107      E7800000 
 108              	.LVL6:
 109              	.LBB6:
 110              	.LBB7:
 111              		.file 3 "src/../h/../h/tcb.hpp"
   1:src/../h/../h/tcb.hpp **** #ifndef OS1_VEZBE07_RISCV_CONTEXT_SWITCH_2_INTERRUPT_TCB_HPP
GAS LISTING /tmp/cc6njoen.s 			page 4


   2:src/../h/../h/tcb.hpp **** #define OS1_VEZBE07_RISCV_CONTEXT_SWITCH_2_INTERRUPT_TCB_HPP
   3:src/../h/../h/tcb.hpp **** 
   4:src/../h/../h/tcb.hpp **** #include "../lib/hw.h"
   5:src/../h/../h/tcb.hpp **** #include "syscall_c.h"
   6:src/../h/../h/tcb.hpp **** #include "scheduler.hpp"
   7:src/../h/../h/tcb.hpp **** #include "list.hpp"
   8:src/../h/../h/tcb.hpp **** 
   9:src/../h/../h/tcb.hpp **** // Thread Control Block
  10:src/../h/../h/tcb.hpp **** class TCB{
  11:src/../h/../h/tcb.hpp **** public:
  12:src/../h/../h/tcb.hpp ****     //---[NEW i DELETE]--------------------------------------------
  13:src/../h/../h/tcb.hpp ****     void *operator new(size_t n){return __mem_alloc(n);}
  14:src/../h/../h/tcb.hpp ****     void *operator new[](size_t n){return __mem_alloc(n);}
  15:src/../h/../h/tcb.hpp ****     void operator delete(void *p) {__mem_free(p);}
 112              		.loc 3 15 36 is_stmt 1 discriminator 1
 113              		.loc 3 15 46 is_stmt 0 discriminator 1
 114 0068 13850400 		mv	a0,s1
 115 006c 97000000 		call	__mem_free@plt
 115      E7800000 
 116              	.LVL7:
 117              	.L9:
 118              	.LBE7:
 119              	.LBE6:
 120              	.LBE5:
  13:src/Thread.cpp **** 
 121              		.loc 2 13 1
 122 0074 83308101 		ld	ra,24(sp)
 123              		.cfi_restore 1
 124 0078 03340101 		ld	s0,16(sp)
 125              		.cfi_restore 8
 126              		.cfi_def_cfa 2, 32
 127 007c 83348100 		ld	s1,8(sp)
 128              		.cfi_restore 9
 129 0080 13010102 		addi	sp,sp,32
 130              		.cfi_def_cfa_offset 0
 131 0084 67800000 		jr	ra
 132              		.cfi_endproc
 133              	.LFE37:
 134              		.globl	__gxx_personality_v0
 135              		.section	.gcc_except_table,"a",@progbits
 136              	.LLSDA37:
 137 0000 FF       		.byte	0xff
 138 0001 FF       		.byte	0xff
 139 0002 03       		.byte	0x3
 140 0003 00       		.byte	0
 141              		.text
 143              		.globl	_ZN6ThreadD1Ev
 144              		.set	_ZN6ThreadD1Ev,_ZN6ThreadD2Ev
 145              		.align	2
 146              		.globl	_ZN6ThreadD0Ev
 148              	_ZN6ThreadD0Ev:
 149              	.LFB39:
  11:src/Thread.cpp ****     delete myHandle;
 150              		.loc 2 11 1 is_stmt 1
 151              		.cfi_startproc
 152              	.LVL8:
 153 0088 130101FE 		addi	sp,sp,-32
GAS LISTING /tmp/cc6njoen.s 			page 5


 154              		.cfi_def_cfa_offset 32
 155 008c 233C1100 		sd	ra,24(sp)
 156 0090 23388100 		sd	s0,16(sp)
 157 0094 23349100 		sd	s1,8(sp)
 158              		.cfi_offset 1, -8
 159              		.cfi_offset 8, -16
 160              		.cfi_offset 9, -24
 161 0098 13040102 		addi	s0,sp,32
 162              		.cfi_def_cfa 8, 0
 163 009c 93040500 		mv	s1,a0
  13:src/Thread.cpp **** 
 164              		.loc 2 13 1 is_stmt 0
 165 00a0 97000000 		call	_ZN6ThreadD1Ev
 165      E7800000 
 166              	.LVL9:
 167 00a8 13850400 		mv	a0,s1
 168 00ac 97000000 		call	_ZdlPv@plt
 168      E7800000 
 169              	.LVL10:
 170 00b4 83308101 		ld	ra,24(sp)
 171              		.cfi_restore 1
 172 00b8 03340101 		ld	s0,16(sp)
 173              		.cfi_restore 8
 174              		.cfi_def_cfa 2, 32
 175 00bc 83348100 		ld	s1,8(sp)
 176              		.cfi_restore 9
 177              	.LVL11:
 178 00c0 13010102 		addi	sp,sp,32
 179              		.cfi_def_cfa_offset 0
 180 00c4 67800000 		jr	ra
 181              		.cfi_endproc
 182              	.LFE39:
 184              		.align	2
 185              		.globl	_ZN6ThreadC2EPFvPvES0_
 187              	_ZN6ThreadC2EPFvPvES0_:
 188              	.LFB34:
   7:src/Thread.cpp ****     thread_make(&myHandle, body, arg);
 189              		.loc 2 7 1 is_stmt 1
 190              		.cfi_startproc
 191              	.LVL12:
 192 00c8 130101FF 		addi	sp,sp,-16
 193              		.cfi_def_cfa_offset 16
 194 00cc 23341100 		sd	ra,8(sp)
 195 00d0 23308100 		sd	s0,0(sp)
 196              		.cfi_offset 1, -8
 197              		.cfi_offset 8, -16
 198 00d4 13040101 		addi	s0,sp,16
 199              		.cfi_def_cfa 8, 0
 200              	.LBB8:
   7:src/Thread.cpp ****     thread_make(&myHandle, body, arg);
 201              		.loc 2 7 47 is_stmt 0
 202 00d8 97070000 		lla	a5,_ZTV6Thread+16
 202      93870700 
 203 00e0 2330F500 		sd	a5,0(a0)
   8:src/Thread.cpp **** }
 204              		.loc 2 8 5 is_stmt 1
   8:src/Thread.cpp **** }
GAS LISTING /tmp/cc6njoen.s 			page 6


 205              		.loc 2 8 16 is_stmt 0
 206 00e4 13058500 		addi	a0,a0,8
 207              	.LVL13:
 208 00e8 97000000 		call	_Z11thread_makePP3TCBPFvPvES2_@plt
 208      E7800000 
 209              	.LVL14:
 210              	.LBE8:
   9:src/Thread.cpp **** 
 211              		.loc 2 9 1
 212 00f0 83308100 		ld	ra,8(sp)
 213              		.cfi_restore 1
 214 00f4 03340100 		ld	s0,0(sp)
 215              		.cfi_restore 8
 216              		.cfi_def_cfa 2, 16
 217 00f8 13010101 		addi	sp,sp,16
 218              		.cfi_def_cfa_offset 0
 219 00fc 67800000 		jr	ra
 220              		.cfi_endproc
 221              	.LFE34:
 223              		.globl	_ZN6ThreadC1EPFvPvES0_
 224              		.set	_ZN6ThreadC1EPFvPvES0_,_ZN6ThreadC2EPFvPvES0_
 225              		.align	2
 226              		.globl	_ZN6Thread5startEv
 228              	_ZN6Thread5startEv:
 229              	.LFB40:
  15:src/Thread.cpp ****     return thread_start(myHandle);
 230              		.loc 2 15 21 is_stmt 1
 231              		.cfi_startproc
 232              	.LVL15:
 233 0100 130101FF 		addi	sp,sp,-16
 234              		.cfi_def_cfa_offset 16
 235 0104 23341100 		sd	ra,8(sp)
 236 0108 23308100 		sd	s0,0(sp)
 237              		.cfi_offset 1, -8
 238              		.cfi_offset 8, -16
 239 010c 13040101 		addi	s0,sp,16
 240              		.cfi_def_cfa 8, 0
  16:src/Thread.cpp **** }
 241              		.loc 2 16 5
  16:src/Thread.cpp **** }
 242              		.loc 2 16 24 is_stmt 0
 243 0110 03358500 		ld	a0,8(a0)
 244              	.LVL16:
 245 0114 97000000 		call	_Z12thread_startP3TCB@plt
 245      E7800000 
 246              	.LVL17:
  17:src/Thread.cpp **** 
 247              		.loc 2 17 1
 248 011c 83308100 		ld	ra,8(sp)
 249              		.cfi_restore 1
 250 0120 03340100 		ld	s0,0(sp)
 251              		.cfi_restore 8
 252              		.cfi_def_cfa 2, 16
 253 0124 13010101 		addi	sp,sp,16
 254              		.cfi_def_cfa_offset 0
 255 0128 67800000 		jr	ra
 256              		.cfi_endproc
GAS LISTING /tmp/cc6njoen.s 			page 7


 257              	.LFE40:
 259              		.align	2
 260              		.globl	_ZN6Thread8dispatchEv
 262              	_ZN6Thread8dispatchEv:
 263              	.LFB41:
  19:src/Thread.cpp ****     thread_dispatch();
 264              		.loc 2 19 25 is_stmt 1
 265              		.cfi_startproc
 266 012c 130101FF 		addi	sp,sp,-16
 267              		.cfi_def_cfa_offset 16
 268 0130 23341100 		sd	ra,8(sp)
 269 0134 23308100 		sd	s0,0(sp)
 270              		.cfi_offset 1, -8
 271              		.cfi_offset 8, -16
 272 0138 13040101 		addi	s0,sp,16
 273              		.cfi_def_cfa 8, 0
  20:src/Thread.cpp **** }
 274              		.loc 2 20 5
  20:src/Thread.cpp **** }
 275              		.loc 2 20 20 is_stmt 0
 276 013c 97000000 		call	_Z15thread_dispatchv@plt
 276      E7800000 
 277              	.LVL18:
  21:src/Thread.cpp **** 
 278              		.loc 2 21 1
 279 0144 83308100 		ld	ra,8(sp)
 280              		.cfi_restore 1
 281 0148 03340100 		ld	s0,0(sp)
 282              		.cfi_restore 8
 283              		.cfi_def_cfa 2, 16
 284 014c 13010101 		addi	sp,sp,16
 285              		.cfi_def_cfa_offset 0
 286 0150 67800000 		jr	ra
 287              		.cfi_endproc
 288              	.LFE41:
 290              		.align	2
 291              		.globl	_ZN6Thread5sleepEm
 293              	_ZN6Thread5sleepEm:
 294              	.LFB42:
  23:src/Thread.cpp ****     return time_sleep(t);
 295              		.loc 2 23 29 is_stmt 1
 296              		.cfi_startproc
 297              	.LVL19:
 298 0154 130101FF 		addi	sp,sp,-16
 299              		.cfi_def_cfa_offset 16
 300 0158 23341100 		sd	ra,8(sp)
 301 015c 23308100 		sd	s0,0(sp)
 302              		.cfi_offset 1, -8
 303              		.cfi_offset 8, -16
 304 0160 13040101 		addi	s0,sp,16
 305              		.cfi_def_cfa 8, 0
  24:src/Thread.cpp **** }
 306              		.loc 2 24 5
  24:src/Thread.cpp **** }
 307              		.loc 2 24 22 is_stmt 0
 308 0164 97000000 		call	_Z10time_sleepm@plt
 308      E7800000 
GAS LISTING /tmp/cc6njoen.s 			page 8


 309              	.LVL20:
  25:src/Thread.cpp **** 
 310              		.loc 2 25 1
 311 016c 83308100 		ld	ra,8(sp)
 312              		.cfi_restore 1
 313 0170 03340100 		ld	s0,0(sp)
 314              		.cfi_restore 8
 315              		.cfi_def_cfa 2, 16
 316 0174 13010101 		addi	sp,sp,16
 317              		.cfi_def_cfa_offset 0
 318 0178 67800000 		jr	ra
 319              		.cfi_endproc
 320              	.LFE42:
 322              		.align	2
 323              		.globl	_ZN6ThreadC2Ev
 325              	_ZN6ThreadC2Ev:
 326              	.LFB45:
  32:src/Thread.cpp **** 
  33:src/Thread.cpp **** Thread::Thread() {
 327              		.loc 2 33 1 is_stmt 1
 328              		.cfi_startproc
 329              	.LVL21:
 330 017c 130101FF 		addi	sp,sp,-16
 331              		.cfi_def_cfa_offset 16
 332 0180 23341100 		sd	ra,8(sp)
 333 0184 23308100 		sd	s0,0(sp)
 334              		.cfi_offset 1, -8
 335              		.cfi_offset 8, -16
 336 0188 13040101 		addi	s0,sp,16
 337              		.cfi_def_cfa 8, 0
 338              	.LBB9:
 339              		.loc 2 33 16 is_stmt 0
 340 018c 97070000 		lla	a5,_ZTV6Thread+16
 340      93870700 
 341 0194 2330F500 		sd	a5,0(a0)
  34:src/Thread.cpp ****     thread_make(&myHandle, threadWrapper, this);
 342              		.loc 2 34 5 is_stmt 1
 343              		.loc 2 34 16 is_stmt 0
 344 0198 13060500 		mv	a2,a0
 345 019c 97050000 		lla	a1,_ZN6Thread13threadWrapperEPv
 345      93850500 
 346 01a4 13058500 		addi	a0,a0,8
 347              	.LVL22:
 348 01a8 97000000 		call	_Z11thread_makePP3TCBPFvPvES2_@plt
 348      E7800000 
 349              	.LVL23:
 350              	.LBE9:
  35:src/Thread.cpp **** }...
 351              		.loc 2 35 1
 352 01b0 83308100 		ld	ra,8(sp)
 353              		.cfi_restore 1
 354 01b4 03340100 		ld	s0,0(sp)
 355              		.cfi_restore 8
 356              		.cfi_def_cfa 2, 16
 357 01b8 13010101 		addi	sp,sp,16
 358              		.cfi_def_cfa_offset 0
 359 01bc 67800000 		jr	ra
GAS LISTING /tmp/cc6njoen.s 			page 9


 360              		.cfi_endproc
 361              	.LFE45:
 363              		.globl	_ZN6ThreadC1Ev
 364              		.set	_ZN6ThreadC1Ev,_ZN6ThreadC2Ev
 365              		.weak	_ZTV6Thread
 366              		.section	.data.rel.ro.local._ZTV6Thread,"awG",@progbits,_ZTV6Thread,comdat
 367              		.align	3
 370              	_ZTV6Thread:
 371 0000 00000000 		.dword	0
 371      00000000 
 372 0008 00000000 		.dword	0
 372      00000000 
 373 0010 00000000 		.dword	_ZN6ThreadD1Ev
 373      00000000 
 374 0018 00000000 		.dword	_ZN6ThreadD0Ev
 374      00000000 
 375 0020 00000000 		.dword	_ZN6Thread3runEv
 375      00000000 
 376              		.text
 377              	.Letext0:
 378              		.file 4 "src/../h/../lib/hw.h"
 379              		.file 5 "src/../h/../h/list.hpp"
 380              		.file 6 "src/../h/syscall_c.h"
 381              		.file 7 "src/../h/../h/../lib/mem.h"
 3560              		.align	3
 3563              	DW.ref.__gxx_personality_v0:
 3564 0000 00000000 		.dword	__gxx_personality_v0
 3564      00000000 
 3565              		.ident	"GCC: (Ubuntu 9.4.0-1ubuntu1~20.04) 9.4.0"
 3566              		.section	.note.GNU-stack,"",@progbits
GAS LISTING /tmp/cc6njoen.s 			page 10

