GAS LISTING /tmp/cc6njoen.s 			page 1


   1              		.file	"Thread.cpp"
   2              		.option pic
   3              		.option norelax
   4              		.text
   5              	.Ltext0:
   6              		.section	.text._ZN6Thread3runEv,"axG",@progbits,_ZN6Thread3runEv,comdat
   7              		.align	2
   8              		.weak	_ZN6Thread3runEv
  10              	_ZN6Thread3runEv:
  11              	.LFB31:
  12              		.file 1 "src/../h/syscall_cpp.hpp"
   1:src/../h/syscall_cpp.hpp **** //
   2:src/../h/syscall_cpp.hpp **** // Created by DjordjeS on 31.7.2022.
   3:src/../h/syscall_cpp.hpp **** //
   4:src/../h/syscall_cpp.hpp **** 
   5:src/../h/syscall_cpp.hpp **** #ifndef _syscall_cpp
   6:src/../h/syscall_cpp.hpp **** #define _syscall_cpp
   7:src/../h/syscall_cpp.hpp **** 
   8:src/../h/syscall_cpp.hpp **** #include "syscall_c.h"
   9:src/../h/syscall_cpp.hpp **** 
  10:src/../h/syscall_cpp.hpp **** void* operator new (size_t);
  11:src/../h/syscall_cpp.hpp **** void operator delete (void*);
  12:src/../h/syscall_cpp.hpp **** 
  13:src/../h/syscall_cpp.hpp **** class Thread {
  14:src/../h/syscall_cpp.hpp **** public:
  15:src/../h/syscall_cpp.hpp ****     Thread (void (*body)(void*), void* arg);
  16:src/../h/syscall_cpp.hpp ****     virtual ~Thread ();
  17:src/../h/syscall_cpp.hpp ****     int start ();
  18:src/../h/syscall_cpp.hpp ****     static void dispatch ();
  19:src/../h/syscall_cpp.hpp ****     static int sleep (time_t);
  20:src/../h/syscall_cpp.hpp ****     static void threadWrapper(void*);
  21:src/../h/syscall_cpp.hpp **** 
  22:src/../h/syscall_cpp.hpp **** protected:
  23:src/../h/syscall_cpp.hpp ****     Thread ();
  24:src/../h/syscall_cpp.hpp ****     virtual void run () {}
  13              		.loc 1 24 18
  14              		.cfi_startproc
  15              	.LVL0:
  16 0000 130101FF 		addi	sp,sp,-16
  17              		.cfi_def_cfa_offset 16
  18 0004 23348100 		sd	s0,8(sp)
  19              		.cfi_offset 8, -8
  20 0008 13040101 		addi	s0,sp,16
  21              		.cfi_def_cfa 8, 0
  22              		.loc 1 24 26 is_stmt 0
  23 000c 03348100 		ld	s0,8(sp)
  24              		.cfi_restore 8
  25              		.cfi_def_cfa 2, 16
  26 0010 13010101 		addi	sp,sp,16
  27              		.cfi_def_cfa_offset 0
  28 0014 67800000 		jr	ra
  29              		.cfi_endproc
  30              	.LFE31:
  32              		.text
  33              		.align	2
  34              		.globl	_ZN6Thread13threadWrapperEPv
  36              	_ZN6Thread13threadWrapperEPv:
GAS LISTING /tmp/cc6njoen.s 			page 2


  37              	.LFB43:
  38              		.file 2 "src/Thread.cpp"
   1:src/Thread.cpp **** //
   2:src/Thread.cpp **** // Created by DjordjeS on 1.8.2022.
   3:src/Thread.cpp **** //
   4:src/Thread.cpp **** 
   5:src/Thread.cpp **** #include "../h/syscall_cpp.hpp"
   6:src/Thread.cpp **** 
   7:src/Thread.cpp **** Thread::Thread(void (*body)(void *), void *arg) {
   8:src/Thread.cpp ****     thread_make(&myHandle, body, arg);
   9:src/Thread.cpp **** }
  10:src/Thread.cpp **** 
  11:src/Thread.cpp **** Thread::~Thread() {
  12:src/Thread.cpp ****     delete myHandle;
  13:src/Thread.cpp **** }
  14:src/Thread.cpp **** 
  15:src/Thread.cpp **** int Thread::start() {
  16:src/Thread.cpp ****     return thread_start(myHandle);
  17:src/Thread.cpp **** }
  18:src/Thread.cpp **** 
  19:src/Thread.cpp **** void Thread::dispatch() {
  20:src/Thread.cpp ****     thread_dispatch();
  21:src/Thread.cpp **** }
  22:src/Thread.cpp **** 
  23:src/Thread.cpp **** int Thread::sleep(time_t t) {
  24:src/Thread.cpp ****     return time_sleep(t);
  25:src/Thread.cpp **** }
  26:src/Thread.cpp **** 
  27:src/Thread.cpp **** void Thread::threadWrapper(void* t) {
  39              		.loc 2 27 37 is_stmt 1
  40              		.cfi_startproc
  41              	.LVL1:
  28:src/Thread.cpp ****     if(t){
  42              		.loc 2 28 5
  43 0000 63080502 		beqz	a0,.L6
  27:src/Thread.cpp ****     if(t){
  44              		.loc 2 27 37 is_stmt 0
  45 0004 130101FF 		addi	sp,sp,-16
  46              		.cfi_def_cfa_offset 16
  47 0008 23341100 		sd	ra,8(sp)
  48 000c 23308100 		sd	s0,0(sp)
  49              		.cfi_offset 1, -8
  50              		.cfi_offset 8, -16
  51 0010 13040101 		addi	s0,sp,16
  52              		.cfi_def_cfa 8, 0
  29:src/Thread.cpp ****         ((Thread*)t)->run();
  53              		.loc 2 29 9 is_stmt 1
  54              		.loc 2 29 27 is_stmt 0
  55 0014 83370500 		ld	a5,0(a0)
  56 0018 83B70701 		ld	a5,16(a5)
  57              		.loc 2 29 26
  58 001c E7800700 		jalr	a5
  59              	.LVL2:
  30:src/Thread.cpp ****     }
  31:src/Thread.cpp **** }
  60              		.loc 2 31 1
  61 0020 83308100 		ld	ra,8(sp)
GAS LISTING /tmp/cc6njoen.s 			page 3


  62              		.cfi_restore 1
  63 0024 03340100 		ld	s0,0(sp)
  64              		.cfi_restore 8
  65              		.cfi_def_cfa 2, 16
  66 0028 13010101 		addi	sp,sp,16
  67              		.cfi_def_cfa_offset 0
  68 002c 67800000 		jr	ra
  69              	.LVL3:
  70              	.L6:
  71 0030 67800000 		ret
  72              		.cfi_endproc
  73              	.LFE43:
  75              		.align	2
  76              		.globl	_ZN6ThreadD2Ev
  78              	_ZN6ThreadD2Ev:
  79              	.LFB37:
  11:src/Thread.cpp ****     delete myHandle;
  80              		.loc 2 11 1 is_stmt 1
  81              		.cfi_startproc
  82              		.cfi_personality 0x9b,DW.ref.__gxx_personality_v0
  83              		.cfi_lsda 0x1b,.LLSDA37
  84              	.LVL4:
  85 0034 130101FE 		addi	sp,sp,-32
  86              		.cfi_def_cfa_offset 32
  87 0038 233C1100 		sd	ra,24(sp)
  88 003c 23388100 		sd	s0,16(sp)
  89 0040 23349100 		sd	s1,8(sp)
  90              		.cfi_offset 1, -8
  91              		.cfi_offset 8, -16
  92              		.cfi_offset 9, -24
  93 0044 13040102 		addi	s0,sp,32
  94              		.cfi_def_cfa 8, 0
  95              	.LBB5:
  11:src/Thread.cpp ****     delete myHandle;
  96              		.loc 2 11 17 is_stmt 0
  97 0048 97070000 		lla	a5,_ZTV6Thread+16
  97      93870700 
  98 0050 2330F500 		sd	a5,0(a0)
  12:src/Thread.cpp **** }
  99              		.loc 2 12 5 is_stmt 1
  12:src/Thread.cpp **** }
 100              		.loc 2 12 12 is_stmt 0
 101 0054 83348500 		ld	s1,8(a0)
  12:src/Thread.cpp **** }
 102              		.loc 2 12 20
 103 0058 638E0400 		beqz	s1,.L9
  12:src/Thread.cpp **** }
 104              		.loc 2 12 12 discriminator 1
 105 005c 13850400 		mv	a0,s1
 106              	.LVL5:
 107 0060 97000000 		call	_ZN3TCBD1Ev@plt
 107      E7800000 
 108              	.LVL6:
 109              	.LBB6:
 110              	.LBB7:
 111              		.file 3 "src/../h/../h/tcb.hpp"
   1:src/../h/../h/tcb.hpp **** #ifndef OS1_VEZBE07_RISCV_CONTEXT_SWITCH_2_INTERRUPT_TCB_HPP
GAS LISTING /tmp/cc6njoen.s 			page 4


   2:src/../h/../h/tcb.hpp **** #define OS1_VEZBE07_RISCV_CONTEXT_SWITCH_2_INTERRUPT_TCB_HPP
   3:src/../h/../h/tcb.hpp **** 
   4:src/../h/../h/tcb.hpp **** #include "../lib/hw.h"
   5:src/../h/../h/tcb.hpp **** #include "syscall_c.h"
   6:src/../h/../h/tcb.hpp **** #include "scheduler.hpp"
   7:src/../h/../h/tcb.hpp **** #include "list.hpp"
   8:src/../h/../h/tcb.hpp **** 
   9:src/../h/../h/tcb.hpp **** // Thread Control Block
  10:src/../h/../h/tcb.hpp **** class TCB{
  11:src/../h/../h/tcb.hpp **** public:
  12:src/../h/../h/tcb.hpp ****     //---[NEW i DELETE]--------------------------------------------
  13:src/../h/../h/tcb.hpp ****     void *operator new(size_t n){return __mem_alloc(n);}
  14:src/../h/../h/tcb.hpp ****     void *operator new[](size_t n){return __mem_alloc(n);}
  15:src/../h/../h/tcb.hpp ****     void operator delete(void *p) {__mem_free(p);}
 112              		.loc 3 15 36 is_stmt 1 discriminator 1
 113              		.loc 3 15 46 is_stmt 0 discriminator 1
 114 0068 13850400 		mv	a0,s1
 115 006c 97000000 		call	__mem_free@plt
 115      E7800000 
 116              	.LVL7:
 117              	.L9:
 118              	.LBE7:
 119              	.LBE6:
 120              	.LBE5:
  13:src/Thread.cpp **** 
 121              		.loc 2 13 1
 122 0074 83308101 		ld	ra,24(sp)
 123              		.cfi_restore 1
 124 0078 03340101 		ld	s0,16(sp)
 125              		.cfi_restore 8
 126              		.cfi_def_cfa 2, 32
 127 007c 83348100 		ld	s1,8(sp)
 128              		.cfi_restore 9
 129 0080 13010102 		addi	sp,sp,32
 130              		.cfi_def_cfa_offset 0
 131 0084 67800000 		jr	ra
 132              		.cfi_endproc
 133              	.LFE37:
 134              		.globl	__gxx_personality_v0
 135              		.section	.gcc_except_table,"a",@progbits
 136              	.LLSDA37:
 137 0000 FF       		.byte	0xff
 138 0001 FF       		.byte	0xff
 139 0002 03       		.byte	0x3
 140 0003 00       		.byte	0
 141              		.text
 143              		.globl	_ZN6ThreadD1Ev
 144              		.set	_ZN6ThreadD1Ev,_ZN6ThreadD2Ev
 145              		.align	2
 146              		.globl	_ZN6ThreadD0Ev
 148              	_ZN6ThreadD0Ev:
 149              	.LFB39:
  11:src/Thread.cpp ****     delete myHandle;
 150              		.loc 2 11 1 is_stmt 1
 151              		.cfi_startproc
 152              	.LVL8:
 153 0088 130101FE 		addi	sp,sp,-32
GAS LISTING /tmp/cc6njoen.s 			page 5


 154              		.cfi_def_cfa_offset 32
 155 008c 233C1100 		sd	ra,24(sp)
 156 0090 23388100 		sd	s0,16(sp)
 157 0094 23349100 		sd	s1,8(sp)
 158              		.cfi_offset 1, -8
 159              		.cfi_offset 8, -16
 160              		.cfi_offset 9, -24
 161 0098 13040102 		addi	s0,sp,32
 162              		.cfi_def_cfa 8, 0
 163 009c 93040500 		mv	s1,a0
  13:src/Thread.cpp **** 
 164              		.loc 2 13 1 is_stmt 0
 165 00a0 97000000 		call	_ZN6ThreadD1Ev
 165      E7800000 
 166              	.LVL9:
 167 00a8 13850400 		mv	a0,s1
 168 00ac 97000000 		call	_ZdlPv@plt
 168      E7800000 
 169              	.LVL10:
 170 00b4 83308101 		ld	ra,24(sp)
 171              		.cfi_restore 1
 172 00b8 03340101 		ld	s0,16(sp)
 173              		.cfi_restore 8
 174              		.cfi_def_cfa 2, 32
 175 00bc 83348100 		ld	s1,8(sp)
 176              		.cfi_restore 9
 177              	.LVL11:
 178 00c0 13010102 		addi	sp,sp,32
 179              		.cfi_def_cfa_offset 0
 180 00c4 67800000 		jr	ra
 181              		.cfi_endproc
 182              	.LFE39:
 184              		.align	2
 185              		.globl	_ZN6ThreadC2EPFvPvES0_
 187              	_ZN6ThreadC2EPFvPvES0_:
 188              	.LFB34:
   7:src/Thread.cpp ****     thread_make(&myHandle, body, arg);
 189              		.loc 2 7 1 is_stmt 1
 190              		.cfi_startproc
 191              	.LVL12:
 192 00c8 130101FF 		addi	sp,sp,-16
 193              		.cfi_def_cfa_offset 16
 194 00cc 23341100 		sd	ra,8(sp)
 195 00d0 23308100 		sd	s0,0(sp)
 196              		.cfi_offset 1, -8
 197              		.cfi_offset 8, -16
 198 00d4 13040101 		addi	s0,sp,16
 199              		.cfi_def_cfa 8, 0
 200              	.LBB8:
   7:src/Thread.cpp ****     thread_make(&myHandle, body, arg);
 201              		.loc 2 7 47 is_stmt 0
 202 00d8 97070000 		lla	a5,_ZTV6Thread+16
 202      93870700 
 203 00e0 2330F500 		sd	a5,0(a0)
   8:src/Thread.cpp **** }
 204              		.loc 2 8 5 is_stmt 1
   8:src/Thread.cpp **** }
GAS LISTING /tmp/cc6njoen.s 			page 6


 205              		.loc 2 8 16 is_stmt 0
 206 00e4 13058500 		addi	a0,a0,8
 207              	.LVL13:
 208 00e8 97000000 		call	_Z11thread_makePP3TCBPFvPvES2_@plt
 208      E7800000 
 209              	.LVL14:
 210              	.LBE8:
   9:src/Thread.cpp **** 
 211              		.loc 2 9 1
 212 00f0 83308100 		ld	ra,8(sp)
 213              		.cfi_restore 1
 214 00f4 03340100 		ld	s0,0(sp)
 215              		.cfi_restore 8
 216              		.cfi_def_cfa 2, 16
 217 00f8 13010101 		addi	sp,sp,16
 218              		.cfi_def_cfa_offset 0
 219 00fc 67800000 		jr	ra
 220              		.cfi_endproc
 221              	.LFE34:
 223              		.globl	_ZN6ThreadC1EPFvPvES0_
 224              		.set	_ZN6ThreadC1EPFvPvES0_,_ZN6ThreadC2EPFvPvES0_
 225              		.align	2
 226              		.globl	_ZN6Thread5startEv
 228              	_ZN6Thread5startEv:
 229              	.LFB40:
  15:src/Thread.cpp ****     return thread_start(myHandle);
 230              		.loc 2 15 21 is_stmt 1
 231              		.cfi_startproc
 232              	.LVL15:
 233 0100 130101FF 		addi	sp,sp,-16
 234              		.cfi_def_cfa_offset 16
 235 0104 23341100 		sd	ra,8(sp)
 236 0108 23308100 		sd	s0,0(sp)
 237              		.cfi_offset 1, -8
 238              		.cfi_offset 8, -16
 239 010c 13040101 		addi	s0,sp,16
 240              		.cfi_def_cfa 8, 0
  16:src/Thread.cpp **** }
 241              		.loc 2 16 5
  16:src/Thread.cpp **** }
 242              		.loc 2 16 24 is_stmt 0
 243 0110 03358500 		ld	a0,8(a0)
 244              	.LVL16:
 245 0114 97000000 		call	_Z12thread_startP3TCB@plt
 245      E7800000 
 246              	.LVL17:
  17:src/Thread.cpp **** 
 247              		.loc 2 17 1
 248 011c 83308100 		ld	ra,8(sp)
 249              		.cfi_restore 1
 250 0120 03340100 		ld	s0,0(sp)
 251              		.cfi_restore 8
 252              		.cfi_def_cfa 2, 16
 253 0124 13010101 		addi	sp,sp,16
 254              		.cfi_def_cfa_offset 0
 255 0128 67800000 		jr	ra
 256              		.cfi_endproc
GAS LISTING /tmp/cc6njoen.s 			page 7


 257              	.LFE40:
 259              		.align	2
 260              		.globl	_ZN6Thread8dispatchEv
 262              	_ZN6Thread8dispatchEv:
 263              	.LFB41:
  19:src/Thread.cpp ****     thread_dispatch();
 264              		.loc 2 19 25 is_stmt 1
 265              		.cfi_startproc
 266 012c 130101FF 		addi	sp,sp,-16
 267              		.cfi_def_cfa_offset 16
 268 0130 23341100 		sd	ra,8(sp)
 269 0134 23308100 		sd	s0,0(sp)
 270              		.cfi_offset 1, -8
 271              		.cfi_offset 8, -16
 272 0138 13040101 		addi	s0,sp,16
 273              		.cfi_def_cfa 8, 0
  20:src/Thread.cpp **** }
 274              		.loc 2 20 5
  20:src/Thread.cpp **** }
 275              		.loc 2 20 20 is_stmt 0
 276 013c 97000000 		call	_Z15thread_dispatchv@plt
 276      E7800000 
 277              	.LVL18:
  21:src/Thread.cpp **** 
 278              		.loc 2 21 1
 279 0144 83308100 		ld	ra,8(sp)
 280              		.cfi_restore 1
 281 0148 03340100 		ld	s0,0(sp)
 282              		.cfi_restore 8
 283              		.cfi_def_cfa 2, 16
 284 014c 13010101 		addi	sp,sp,16
 285              		.cfi_def_cfa_offset 0
 286 0150 67800000 		jr	ra
 287              		.cfi_endproc
 288              	.LFE41:
 290              		.align	2
 291              		.globl	_ZN6Thread5sleepEm
 293              	_ZN6Thread5sleepEm:
 294              	.LFB42:
  23:src/Thread.cpp ****     return time_sleep(t);
 295              		.loc 2 23 29 is_stmt 1
 296              		.cfi_startproc
 297              	.LVL19:
 298 0154 130101FF 		addi	sp,sp,-16
 299              		.cfi_def_cfa_offset 16
 300 0158 23341100 		sd	ra,8(sp)
 301 015c 23308100 		sd	s0,0(sp)
 302              		.cfi_offset 1, -8
 303              		.cfi_offset 8, -16
 304 0160 13040101 		addi	s0,sp,16
 305              		.cfi_def_cfa 8, 0
  24:src/Thread.cpp **** }
 306              		.loc 2 24 5
  24:src/Thread.cpp **** }
 307              		.loc 2 24 22 is_stmt 0
 308 0164 97000000 		call	_Z10time_sleepm@plt
 308      E7800000 
GAS LISTING /tmp/cc6njoen.s 			page 8


 309              	.LVL20:
  25:src/Thread.cpp **** 
 310              		.loc 2 25 1
 311 016c 83308100 		ld	ra,8(sp)
 312              		.cfi_restore 1
 313 0170 03340100 		ld	s0,0(sp)
 314              		.cfi_restore 8
 315              		.cfi_def_cfa 2, 16
 316 0174 13010101 		addi	sp,sp,16
 317              		.cfi_def_cfa_offset 0
 318 0178 67800000 		jr	ra
 319              		.cfi_endproc
 320              	.LFE42:
 322              		.align	2
 323              		.globl	_ZN6ThreadC2Ev
 325              	_ZN6ThreadC2Ev:
 326              	.LFB45:
  32:src/Thread.cpp **** 
  33:src/Thread.cpp **** Thread::Thread() {
 327              		.loc 2 33 1 is_stmt 1
 328              		.cfi_startproc
 329              	.LVL21:
 330 017c 130101FF 		addi	sp,sp,-16
 331              		.cfi_def_cfa_offset 16
 332 0180 23341100 		sd	ra,8(sp)
 333 0184 23308100 		sd	s0,0(sp)
 334              		.cfi_offset 1, -8
 335              		.cfi_offset 8, -16
 336 0188 13040101 		addi	s0,sp,16
 337              		.cfi_def_cfa 8, 0
 338              	.LBB9:
 339              		.loc 2 33 16 is_stmt 0
 340 018c 97070000 		lla	a5,_ZTV6Thread+16
 340      93870700 
 341 0194 2330F500 		sd	a5,0(a0)
  34:src/Thread.cpp ****     thread_make(&myHandle, threadWrapper, this);
 342              		.loc 2 34 5 is_stmt 1
 343              		.loc 2 34 16 is_stmt 0
 344 0198 13060500 		mv	a2,a0
 345 019c 97050000 		lla	a1,_ZN6Thread13threadWrapperEPv
 345      93850500 
 346 01a4 13058500 		addi	a0,a0,8
 347              	.LVL22:
 348 01a8 97000000 		call	_Z11thread_makePP3TCBPFvPvES2_@plt
 348      E7800000 
 349              	.LVL23:
 350              	.LBE9:
  35:src/Thread.cpp **** }...
 351              		.loc 2 35 1
 352 01b0 83308100 		ld	ra,8(sp)
 353              		.cfi_restore 1
 354 01b4 03340100 		ld	s0,0(sp)
 355              		.cfi_restore 8
 356              		.cfi_def_cfa 2, 16
 357 01b8 13010101 		addi	sp,sp,16
 358              		.cfi_def_cfa_offset 0
 359 01bc 67800000 		jr	ra
GAS LISTING /tmp/cc6njoen.s 			page 9


 360              		.cfi_endproc
 361              	.LFE45:
 363              		.globl	_ZN6ThreadC1Ev
 364              		.set	_ZN6ThreadC1Ev,_ZN6ThreadC2Ev
 365              		.weak	_ZTV6Thread
 366              		.section	.data.rel.ro.local._ZTV6Thread,"awG",@progbits,_ZTV6Thread,comdat
 367              		.align	3
 370              	_ZTV6Thread:
 371 0000 00000000 		.dword	0
 371      00000000 
 372 0008 00000000 		.dword	0
 372      00000000 
 373 0010 00000000 		.dword	_ZN6ThreadD1Ev
 373      00000000 
 374 0018 00000000 		.dword	_ZN6ThreadD0Ev
 374      00000000 
 375 0020 00000000 		.dword	_ZN6Thread3runEv
 375      00000000 
 376              		.text
 377              	.Letext0:
 378              		.file 4 "src/../h/../lib/hw.h"
 379              		.file 5 "src/../h/../h/list.hpp"
 380              		.file 6 "src/../h/syscall_c.h"
 381              		.file 7 "src/../h/../h/../lib/mem.h"
 3560              		.align	3
 3563              	DW.ref.__gxx_personality_v0:
 3564 0000 00000000 		.dword	__gxx_personality_v0
 3564      00000000 
 3565              		.ident	"GCC: (Ubuntu 9.4.0-1ubuntu1~20.04) 9.4.0"
 3566              		.section	.note.GNU-stack,"",@progbits
GAS LISTING /tmp/cc6njoen.s 			page 10


DEFINED SYMBOLS
                            *ABS*:0000000000000000 Thread.cpp
     /tmp/cc6njoen.s:10     .text._ZN6Thread3runEv:0000000000000000 _ZN6Thread3runEv
     /tmp/cc6njoen.s:14     .text._ZN6Thread3runEv:0000000000000000 .L0 
     /tmp/cc6njoen.s:16     .text._ZN6Thread3runEv:0000000000000000 .L0 
     /tmp/cc6njoen.s:17     .text._ZN6Thread3runEv:0000000000000004 .L0 
     /tmp/cc6njoen.s:19     .text._ZN6Thread3runEv:0000000000000008 .L0 
     /tmp/cc6njoen.s:21     .text._ZN6Thread3runEv:000000000000000c .L0 
     /tmp/cc6njoen.s:23     .text._ZN6Thread3runEv:000000000000000c .L0 
     /tmp/cc6njoen.s:24     .text._ZN6Thread3runEv:0000000000000010 .L0 
     /tmp/cc6njoen.s:25     .text._ZN6Thread3runEv:0000000000000010 .L0 
     /tmp/cc6njoen.s:27     .text._ZN6Thread3runEv:0000000000000014 .L0 
     /tmp/cc6njoen.s:29     .text._ZN6Thread3runEv:0000000000000018 .L0 
     /tmp/cc6njoen.s:36     .text:0000000000000000 _ZN6Thread13threadWrapperEPv
     /tmp/cc6njoen.s:40     .text:0000000000000000 .L0 
     /tmp/cc6njoen.s:42     .text:0000000000000000 .L0 
     /tmp/cc6njoen.s:43     .text:0000000000000000 .L0 
     /tmp/cc6njoen.s:45     .text:0000000000000004 .L0 
     /tmp/cc6njoen.s:46     .text:0000000000000008 .L0 
     /tmp/cc6njoen.s:49     .text:0000000000000010 .L0 
     /tmp/cc6njoen.s:50     .text:0000000000000010 .L0 
     /tmp/cc6njoen.s:52     .text:0000000000000014 .L0 
     /tmp/cc6njoen.s:54     .text:0000000000000014 .L0 
     /tmp/cc6njoen.s:55     .text:0000000000000014 .L0 
     /tmp/cc6njoen.s:58     .text:000000000000001c .L0 
     /tmp/cc6njoen.s:61     .text:0000000000000020 .L0 
     /tmp/cc6njoen.s:62     .text:0000000000000024 .L0 
     /tmp/cc6njoen.s:64     .text:0000000000000028 .L0 
     /tmp/cc6njoen.s:65     .text:0000000000000028 .L0 
     /tmp/cc6njoen.s:67     .text:000000000000002c .L0 
     /tmp/cc6njoen.s:72     .text:0000000000000034 .L0 
     /tmp/cc6njoen.s:78     .text:0000000000000034 _ZN6ThreadD2Ev
     /tmp/cc6njoen.s:81     .text:0000000000000034 .L0 
     /tmp/cc6njoen.s:3563   .data.rel.local.DW.ref.__gxx_personality_v0:0000000000000000 DW.ref.__gxx_personality_v0
     /tmp/cc6njoen.s:85     .text:0000000000000034 .L0 
     /tmp/cc6njoen.s:86     .text:0000000000000038 .L0 
     /tmp/cc6njoen.s:90     .text:0000000000000044 .L0 
     /tmp/cc6njoen.s:91     .text:0000000000000044 .L0 
     /tmp/cc6njoen.s:92     .text:0000000000000044 .L0 
     /tmp/cc6njoen.s:94     .text:0000000000000048 .L0 
     /tmp/cc6njoen.s:370    .data.rel.ro.local._ZTV6Thread:0000000000000000 _ZTV6Thread
     /tmp/cc6njoen.s:97     .text:0000000000000048 .L0 
     /tmp/cc6njoen.s:100    .text:0000000000000054 .L0 
     /tmp/cc6njoen.s:101    .text:0000000000000054 .L0 
     /tmp/cc6njoen.s:103    .text:0000000000000058 .L0 
     /tmp/cc6njoen.s:105    .text:000000000000005c .L0 
     /tmp/cc6njoen.s:113    .text:0000000000000068 .L0 
     /tmp/cc6njoen.s:114    .text:0000000000000068 .L0 
     /tmp/cc6njoen.s:122    .text:0000000000000074 .L0 
     /tmp/cc6njoen.s:123    .text:0000000000000078 .L0 
     /tmp/cc6njoen.s:125    .text:000000000000007c .L0 
     /tmp/cc6njoen.s:126    .text:000000000000007c .L0 
     /tmp/cc6njoen.s:128    .text:0000000000000080 .L0 
     /tmp/cc6njoen.s:130    .text:0000000000000084 .L0 
     /tmp/cc6njoen.s:132    .text:0000000000000088 .L0 
     /tmp/cc6njoen.s:78     .text:0000000000000034 _ZN6ThreadD1Ev
     /tmp/cc6njoen.s:148    .text:0000000000000088 _ZN6ThreadD0Ev
GAS LISTING /tmp/cc6njoen.s 			page 11


     /tmp/cc6njoen.s:151    .text:0000000000000088 .L0 
     /tmp/cc6njoen.s:153    .text:0000000000000088 .L0 
     /tmp/cc6njoen.s:154    .text:000000000000008c .L0 
     /tmp/cc6njoen.s:158    .text:0000000000000098 .L0 
     /tmp/cc6njoen.s:159    .text:0000000000000098 .L0 
     /tmp/cc6njoen.s:160    .text:0000000000000098 .L0 
     /tmp/cc6njoen.s:162    .text:000000000000009c .L0 
     /tmp/cc6njoen.s:165    .text:00000000000000a0 .L0 
     /tmp/cc6njoen.s:171    .text:00000000000000b8 .L0 
     /tmp/cc6njoen.s:173    .text:00000000000000bc .L0 
     /tmp/cc6njoen.s:174    .text:00000000000000bc .L0 
     /tmp/cc6njoen.s:176    .text:00000000000000c0 .L0 
     /tmp/cc6njoen.s:179    .text:00000000000000c4 .L0 
     /tmp/cc6njoen.s:181    .text:00000000000000c8 .L0 
     /tmp/cc6njoen.s:187    .text:00000000000000c8 _ZN6ThreadC2EPFvPvES0_
     /tmp/cc6njoen.s:190    .text:00000000000000c8 .L0 
     /tmp/cc6njoen.s:192    .text:00000000000000c8 .L0 
     /tmp/cc6njoen.s:193    .text:00000000000000cc .L0 
     /tmp/cc6njoen.s:196    .text:00000000000000d4 .L0 
     /tmp/cc6njoen.s:197    .text:00000000000000d4 .L0 
     /tmp/cc6njoen.s:199    .text:00000000000000d8 .L0 
     /tmp/cc6njoen.s:202    .text:00000000000000d8 .L0 
     /tmp/cc6njoen.s:205    .text:00000000000000e4 .L0 
     /tmp/cc6njoen.s:206    .text:00000000000000e4 .L0 
     /tmp/cc6njoen.s:212    .text:00000000000000f0 .L0 
     /tmp/cc6njoen.s:213    .text:00000000000000f4 .L0 
     /tmp/cc6njoen.s:215    .text:00000000000000f8 .L0 
     /tmp/cc6njoen.s:216    .text:00000000000000f8 .L0 
     /tmp/cc6njoen.s:218    .text:00000000000000fc .L0 
     /tmp/cc6njoen.s:220    .text:0000000000000100 .L0 
     /tmp/cc6njoen.s:187    .text:00000000000000c8 _ZN6ThreadC1EPFvPvES0_
     /tmp/cc6njoen.s:228    .text:0000000000000100 _ZN6Thread5startEv
     /tmp/cc6njoen.s:231    .text:0000000000000100 .L0 
     /tmp/cc6njoen.s:233    .text:0000000000000100 .L0 
     /tmp/cc6njoen.s:234    .text:0000000000000104 .L0 
     /tmp/cc6njoen.s:237    .text:000000000000010c .L0 
     /tmp/cc6njoen.s:238    .text:000000000000010c .L0 
     /tmp/cc6njoen.s:240    .text:0000000000000110 .L0 
     /tmp/cc6njoen.s:242    .text:0000000000000110 .L0 
     /tmp/cc6njoen.s:243    .text:0000000000000110 .L0 
     /tmp/cc6njoen.s:248    .text:000000000000011c .L0 
     /tmp/cc6njoen.s:249    .text:0000000000000120 .L0 
     /tmp/cc6njoen.s:251    .text:0000000000000124 .L0 
     /tmp/cc6njoen.s:252    .text:0000000000000124 .L0 
     /tmp/cc6njoen.s:254    .text:0000000000000128 .L0 
     /tmp/cc6njoen.s:256    .text:000000000000012c .L0 
     /tmp/cc6njoen.s:262    .text:000000000000012c _ZN6Thread8dispatchEv
     /tmp/cc6njoen.s:265    .text:000000000000012c .L0 
     /tmp/cc6njoen.s:266    .text:000000000000012c .L0 
     /tmp/cc6njoen.s:267    .text:0000000000000130 .L0 
     /tmp/cc6njoen.s:270    .text:0000000000000138 .L0 
     /tmp/cc6njoen.s:271    .text:0000000000000138 .L0 
     /tmp/cc6njoen.s:273    .text:000000000000013c .L0 
     /tmp/cc6njoen.s:275    .text:000000000000013c .L0 
     /tmp/cc6njoen.s:276    .text:000000000000013c .L0 
     /tmp/cc6njoen.s:279    .text:0000000000000144 .L0 
     /tmp/cc6njoen.s:280    .text:0000000000000148 .L0 
GAS LISTING /tmp/cc6njoen.s 			page 12


     /tmp/cc6njoen.s:282    .text:000000000000014c .L0 
     /tmp/cc6njoen.s:283    .text:000000000000014c .L0 
     /tmp/cc6njoen.s:285    .text:0000000000000150 .L0 
     /tmp/cc6njoen.s:287    .text:0000000000000154 .L0 
     /tmp/cc6njoen.s:293    .text:0000000000000154 _ZN6Thread5sleepEm
     /tmp/cc6njoen.s:296    .text:0000000000000154 .L0 
     /tmp/cc6njoen.s:298    .text:0000000000000154 .L0 
     /tmp/cc6njoen.s:299    .text:0000000000000158 .L0 
     /tmp/cc6njoen.s:302    .text:0000000000000160 .L0 
     /tmp/cc6njoen.s:303    .text:0000000000000160 .L0 
     /tmp/cc6njoen.s:305    .text:0000000000000164 .L0 
     /tmp/cc6njoen.s:307    .text:0000000000000164 .L0 
     /tmp/cc6njoen.s:308    .text:0000000000000164 .L0 
     /tmp/cc6njoen.s:311    .text:000000000000016c .L0 
     /tmp/cc6njoen.s:312    .text:0000000000000170 .L0 
     /tmp/cc6njoen.s:314    .text:0000000000000174 .L0 
     /tmp/cc6njoen.s:315    .text:0000000000000174 .L0 
     /tmp/cc6njoen.s:317    .text:0000000000000178 .L0 
     /tmp/cc6njoen.s:319    .text:000000000000017c .L0 
     /tmp/cc6njoen.s:325    .text:000000000000017c _ZN6ThreadC2Ev
     /tmp/cc6njoen.s:328    .text:000000000000017c .L0 
     /tmp/cc6njoen.s:330    .text:000000000000017c .L0 
     /tmp/cc6njoen.s:331    .text:0000000000000180 .L0 
     /tmp/cc6njoen.s:334    .text:0000000000000188 .L0 
     /tmp/cc6njoen.s:335    .text:0000000000000188 .L0 
     /tmp/cc6njoen.s:337    .text:000000000000018c .L0 
     /tmp/cc6njoen.s:340    .text:000000000000018c .L0 
     /tmp/cc6njoen.s:343    .text:0000000000000198 .L0 
     /tmp/cc6njoen.s:344    .text:0000000000000198 .L0 
     /tmp/cc6njoen.s:352    .text:00000000000001b0 .L0 
     /tmp/cc6njoen.s:353    .text:00000000000001b4 .L0 
     /tmp/cc6njoen.s:355    .text:00000000000001b8 .L0 
     /tmp/cc6njoen.s:356    .text:00000000000001b8 .L0 
     /tmp/cc6njoen.s:358    .text:00000000000001bc .L0 
     /tmp/cc6njoen.s:360    .text:00000000000001c0 .L0 
     /tmp/cc6njoen.s:325    .text:000000000000017c _ZN6ThreadC1Ev
     /tmp/cc6njoen.s:32     .text._ZN6Thread3runEv:0000000000000018 .L0 
     /tmp/cc6njoen.s:382    .text:00000000000001c0 .L0 
     /tmp/cc6njoen.s:97     .text:0000000000000048 .L0 
     /tmp/cc6njoen.s:202    .text:00000000000000d8 .L0 
     /tmp/cc6njoen.s:340    .text:000000000000018c .L0 
     /tmp/cc6njoen.s:345    .text:000000000000019c .L0 
     /tmp/cc6njoen.s:70     .text:0000000000000030 .L6
     /tmp/cc6njoen.s:117    .text:0000000000000074 .L9
     /tmp/cc6njoen.s:1848   .debug_abbrev:0000000000000000 .Ldebug_abbrev0
     /tmp/cc6njoen.s:3505   .debug_str:0000000000000837 .LASF154
     /tmp/cc6njoen.s:3493   .debug_str:00000000000007da .LASF155
     /tmp/cc6njoen.s:3477   .debug_str:0000000000000737 .LASF156
     /tmp/cc6njoen.s:3219   .debug_ranges:0000000000000000 .Ldebug_ranges0
     /tmp/cc6njoen.s:3227   .debug_line:0000000000000000 .Ldebug_line0
     /tmp/cc6njoen.s:3417   .debug_str:000000000000059c .LASF0
     /tmp/cc6njoen.s:3433   .debug_str:00000000000005f9 .LASF1
     /tmp/cc6njoen.s:3399   .debug_str:00000000000004fb .LASF2
     /tmp/cc6njoen.s:3363   .debug_str:000000000000043c .LASF4
     /tmp/cc6njoen.s:3481   .debug_str:0000000000000761 .LASF3
     /tmp/cc6njoen.s:3261   .debug_str:00000000000000e3 .LASF5
     /tmp/cc6njoen.s:3307   .debug_str:0000000000000264 .LASF6
GAS LISTING /tmp/cc6njoen.s 			page 13


     /tmp/cc6njoen.s:3437   .debug_str:000000000000061e .LASF7
     /tmp/cc6njoen.s:3415   .debug_str:0000000000000589 .LASF8
     /tmp/cc6njoen.s:3519   .debug_str:0000000000000971 .LASF9
     /tmp/cc6njoen.s:3343   .debug_str:000000000000039e .LASF10
     /tmp/cc6njoen.s:3453   .debug_str:000000000000069a .LASF11
     /tmp/cc6njoen.s:3509   .debug_str:0000000000000907 .LASF12
     /tmp/cc6njoen.s:3267   .debug_str:0000000000000102 .LASF13
     /tmp/cc6njoen.s:3235   .debug_str:0000000000000036 .LASF14
     /tmp/cc6njoen.s:3283   .debug_str:000000000000019a .LASF15
     /tmp/cc6njoen.s:3473   .debug_str:0000000000000719 .LASF16
     /tmp/cc6njoen.s:3299   .debug_str:0000000000000222 .LASF17
     /tmp/cc6njoen.s:3383   .debug_str:00000000000004b5 .LASF54
     /tmp/cc6njoen.s:3385   .debug_str:00000000000004bf .LASF28
     /tmp/cc6njoen.s:3533   .debug_str:00000000000009dc .LASF18
     /tmp/cc6njoen.s:3303   .debug_str:0000000000000247 .LASF20
     /tmp/cc6njoen.s:3337   .debug_str:0000000000000373 .LASF19
     /tmp/cc6njoen.s:3269   .debug_str:0000000000000112 .LASF21
     /tmp/cc6njoen.s:3489   .debug_str:00000000000007ae .LASF22
     /tmp/cc6njoen.s:3511   .debug_str:0000000000000916 .LASF24
     /tmp/cc6njoen.s:3495   .debug_str:00000000000007e9 .LASF23
     /tmp/cc6njoen.s:3553   .debug_str:0000000000000a7b .LASF25
     /tmp/cc6njoen.s:3467   .debug_str:00000000000006f0 .LASF26
     /tmp/cc6njoen.s:3549   .debug_str:0000000000000a62 .LASF27
     /tmp/cc6njoen.s:3409   .debug_str:0000000000000541 .LASF29
     /tmp/cc6njoen.s:3305   .debug_str:000000000000025f .LASF30
     /tmp/cc6njoen.s:3393   .debug_str:00000000000004e5 .LASF31
     /tmp/cc6njoen.s:3391   .debug_str:00000000000004de .LASF32
     /tmp/cc6njoen.s:3487   .debug_str:000000000000079b .LASF33
     /tmp/cc6njoen.s:3463   .debug_str:00000000000006d8 .LASF34
     /tmp/cc6njoen.s:3277   .debug_str:000000000000016c .LASF35
     /tmp/cc6njoen.s:3551   .debug_str:0000000000000a67 .LASF36
     /tmp/cc6njoen.s:3361   .debug_str:0000000000000437 .LASF37
     /tmp/cc6njoen.s:3497   .debug_str:00000000000007fc .LASF38
     /tmp/cc6njoen.s:3471   .debug_str:0000000000000702 .LASF40
     /tmp/cc6njoen.s:3411   .debug_str:0000000000000560 .LASF128
     /tmp/cc6njoen.s:3351   .debug_str:00000000000003d1 .LASF130
     /tmp/cc6njoen.s:3329   .debug_str:000000000000032d .LASF39
     /tmp/cc6njoen.s:3271   .debug_str:000000000000012a .LASF41
     /tmp/cc6njoen.s:3503   .debug_str:000000000000082e .LASF42
     /tmp/cc6njoen.s:3313   .debug_str:0000000000000296 .LASF43
     /tmp/cc6njoen.s:3341   .debug_str:0000000000000396 .LASF44
     /tmp/cc6njoen.s:3311   .debug_str:000000000000027a .LASF45
     /tmp/cc6njoen.s:3507   .debug_str:00000000000008fb .LASF46
     /tmp/cc6njoen.s:3231   .debug_str:0000000000000009 .LASF47
     /tmp/cc6njoen.s:3279   .debug_str:0000000000000180 .LASF48
     /tmp/cc6njoen.s:3375   .debug_str:0000000000000476 .LASF49
     /tmp/cc6njoen.s:3423   .debug_str:00000000000005b8 .LASF50
     /tmp/cc6njoen.s:3251   .debug_str:000000000000009d .LASF51
     /tmp/cc6njoen.s:3379   .debug_str:000000000000049e .LASF52
     /tmp/cc6njoen.s:3539   .debug_str:0000000000000a01 .LASF53
     /tmp/cc6njoen.s:3253   .debug_str:00000000000000ba .LASF157
     /tmp/cc6njoen.s:3529   .debug_str:00000000000009ce .LASF55
     /tmp/cc6njoen.s:3451   .debug_str:0000000000000694 .LASF56
     /tmp/cc6njoen.s:3445   .debug_str:000000000000066a .LASF57
     /tmp/cc6njoen.s:3459   .debug_str:00000000000006ca .LASF58
     /tmp/cc6njoen.s:3365   .debug_str:0000000000000443 .LASF59
     /tmp/cc6njoen.s:3243   .debug_str:0000000000000069 .LASF60
GAS LISTING /tmp/cc6njoen.s 			page 14


     /tmp/cc6njoen.s:3357   .debug_str:0000000000000406 .LASF61
     /tmp/cc6njoen.s:3241   .debug_str:0000000000000061 .LASF158
     /tmp/cc6njoen.s:3257   .debug_str:00000000000000cb .LASF62
     /tmp/cc6njoen.s:3347   .debug_str:00000000000003be .LASF63
     /tmp/cc6njoen.s:3469   .debug_str:00000000000006f5 .LASF64
     /tmp/cc6njoen.s:3483   .debug_str:0000000000000773 .LASF65
     /tmp/cc6njoen.s:3315   .debug_str:00000000000002b3 .LASF66
     /tmp/cc6njoen.s:3239   .debug_str:0000000000000055 .LASF67
     /tmp/cc6njoen.s:3441   .debug_str:0000000000000649 .LASF68
     /tmp/cc6njoen.s:3291   .debug_str:00000000000001e2 .LASF69
     /tmp/cc6njoen.s:3407   .debug_str:0000000000000538 .LASF70
     /tmp/cc6njoen.s:3321   .debug_str:00000000000002ce .LASF71
     /tmp/cc6njoen.s:3373   .debug_str:000000000000046d .LASF72
     /tmp/cc6njoen.s:3333   .debug_str:000000000000034a .LASF73
     /tmp/cc6njoen.s:3389   .debug_str:00000000000004d1 .LASF74
     /tmp/cc6njoen.s:3499   .debug_str:000000000000080f .LASF75
     /tmp/cc6njoen.s:3397   .debug_str:00000000000004f0 .LASF76
     /tmp/cc6njoen.s:3513   .debug_str:000000000000092f .LASF78
     /tmp/cc6njoen.s:3273   .debug_str:0000000000000148 .LASF77
     /tmp/cc6njoen.s:3541   .debug_str:0000000000000a1b .LASF79
     /tmp/cc6njoen.s:3245   .debug_str:0000000000000072 .LASF80
     /tmp/cc6njoen.s:3515   .debug_str:0000000000000945 .LASF81
     /tmp/cc6njoen.s:3449   .debug_str:0000000000000685 .LASF82
     /tmp/cc6njoen.s:3401   .debug_str:0000000000000509 .LASF83
     /tmp/cc6njoen.s:3537   .debug_str:00000000000009f9 .LASF84
     /tmp/cc6njoen.s:3425   .debug_str:00000000000005c3 .LASF85
     /tmp/cc6njoen.s:3431   .debug_str:00000000000005eb .LASF86
     /tmp/cc6njoen.s:3485   .debug_str:0000000000000780 .LASF87
     /tmp/cc6njoen.s:3465   .debug_str:00000000000006eb .LASF159
     /tmp/cc6njoen.s:3429   .debug_str:00000000000005d4 .LASF88
     /tmp/cc6njoen.s:3367   .debug_str:000000000000044b .LASF89
     /tmp/cc6njoen.s:3421   .debug_str:00000000000005b2 .LASF90
     /tmp/cc6njoen.s:3371   .debug_str:0000000000000465 .LASF91
     /tmp/cc6njoen.s:3249   .debug_str:000000000000008f .LASF92
     /tmp/cc6njoen.s:3427   .debug_str:00000000000005ca .LASF93
     /tmp/cc6njoen.s:3527   .debug_str:00000000000009c3 .LASF94
     /tmp/cc6njoen.s:3531   .debug_str:00000000000009d6 .LASF95
     /tmp/cc6njoen.s:3405   .debug_str:000000000000052c .LASF96
     /tmp/cc6njoen.s:3309   .debug_str:000000000000026b .LASF97
     /tmp/cc6njoen.s:3381   .debug_str:00000000000004a7 .LASF104
     /tmp/cc6njoen.s:3353   .debug_str:00000000000003e8 .LASF106
     /tmp/cc6njoen.s:3535   .debug_str:00000000000009e9 .LASF98
     /tmp/cc6njoen.s:3491   .debug_str:00000000000007be .LASF99
     /tmp/cc6njoen.s:3369   .debug_str:0000000000000450 .LASF100
     /tmp/cc6njoen.s:3325   .debug_str:0000000000000307 .LASF101
     /tmp/cc6njoen.s:3293   .debug_str:00000000000001f9 .LASF102
     /tmp/cc6njoen.s:3359   .debug_str:000000000000040f .LASF103
     /tmp/cc6njoen.s:3419   .debug_str:00000000000005a9 .LASF105
     /tmp/cc6njoen.s:3447   .debug_str:0000000000000672 .LASF107
     /tmp/cc6njoen.s:3275   .debug_str:000000000000015b .LASF108
     /tmp/cc6njoen.s:3297   .debug_str:000000000000021a .LASF109
     /tmp/cc6njoen.s:3331   .debug_str:0000000000000338 .LASF110
     /tmp/cc6njoen.s:3479   .debug_str:000000000000075c .LASF111
     /tmp/cc6njoen.s:3543   .debug_str:0000000000000a39 .LASF113
     /tmp/cc6njoen.s:3317   .debug_str:00000000000002b8 .LASF112
     /tmp/cc6njoen.s:3319   .debug_str:00000000000002be .LASF114
     /tmp/cc6njoen.s:3263   .debug_str:00000000000000ea .LASF115
GAS LISTING /tmp/cc6njoen.s 			page 15


     /tmp/cc6njoen.s:3345   .debug_str:00000000000003ac .LASF116
     /tmp/cc6njoen.s:3501   .debug_str:0000000000000828 .LASF117
     /tmp/cc6njoen.s:3403   .debug_str:000000000000051c .LASF118
     /tmp/cc6njoen.s:3439   .debug_str:0000000000000631 .LASF119
     /tmp/cc6njoen.s:3525   .debug_str:00000000000009a0 .LASF120
     /tmp/cc6njoen.s:3395   .debug_str:00000000000004ea .LASF121
     /tmp/cc6njoen.s:3265   .debug_str:00000000000000f2 .LASF122
     /tmp/cc6njoen.s:3327   .debug_str:0000000000000328 .LASF123
     /tmp/cc6njoen.s:3229   .debug_str:0000000000000000 .LASF124
     /tmp/cc6njoen.s:3355   .debug_str:0000000000000401 .LASF125
     /tmp/cc6njoen.s:3349   .debug_str:00000000000003ca .LASF126
     /tmp/cc6njoen.s:3435   .debug_str:000000000000060c .LASF160
     /tmp/cc6njoen.s:3387   .debug_str:00000000000004c4 .LASF161
     /tmp/cc6njoen.s:3457   .debug_str:00000000000006b3 .LASF127
     /tmp/cc6njoen.s:3475   .debug_str:000000000000072f .LASF129
     /tmp/cc6njoen.s:3233   .debug_str:0000000000000027 .LASF131
     /tmp/cc6njoen.s:3339   .debug_str:0000000000000383 .LASF132
     /tmp/cc6njoen.s:3335   .debug_str:000000000000035d .LASF133
     /tmp/cc6njoen.s:3295   .debug_str:0000000000000207 .LASF134
     /tmp/cc6njoen.s:3323   .debug_str:00000000000002ea .LASF135
     /tmp/cc6njoen.s:3517   .debug_str:0000000000000962 .LASF136
     /tmp/cc6njoen.s:3545   .debug_str:0000000000000a48 .LASF162
     /tmp/cc6njoen.s:3547   .debug_str:0000000000000a59 .LASF137
     /tmp/cc6njoen.s:3521   .debug_str:0000000000000981 .LASF163
     /tmp/cc6njoen.s:3461   .debug_str:00000000000006d3 .LASF138
     /tmp/cc6njoen.s:3523   .debug_str:0000000000000991 .LASF140
     /tmp/cc6njoen.s:326    .text:000000000000017c .LFB45
     /tmp/cc6njoen.s:361    .text:00000000000001c0 .LFE45
     /tmp/cc6njoen.s:3053   .debug_loc:0000000000000000 .LLST9
     /tmp/cc6njoen.s:349    .text:00000000000001b0 .LVL23
     /tmp/cc6njoen.s:37     .text:0000000000000000 .LFB43
     /tmp/cc6njoen.s:73     .text:0000000000000034 .LFE43
     /tmp/cc6njoen.s:3071   .debug_loc:000000000000004c .LLST0
     /tmp/cc6njoen.s:59     .text:0000000000000020 .LVL2
     /tmp/cc6njoen.s:294    .text:0000000000000154 .LFB42
     /tmp/cc6njoen.s:320    .text:000000000000017c .LFE42
     /tmp/cc6njoen.s:3089   .debug_loc:0000000000000098 .LLST8
     /tmp/cc6njoen.s:309    .text:000000000000016c .LVL20
     /tmp/cc6njoen.s:263    .text:000000000000012c .LFB41
     /tmp/cc6njoen.s:288    .text:0000000000000154 .LFE41
     /tmp/cc6njoen.s:277    .text:0000000000000144 .LVL18
     /tmp/cc6njoen.s:229    .text:0000000000000100 .LFB40
     /tmp/cc6njoen.s:257    .text:000000000000012c .LFE40
     /tmp/cc6njoen.s:3103   .debug_loc:00000000000000d1 .LLST7
     /tmp/cc6njoen.s:246    .text:000000000000011c .LVL17
     /tmp/cc6njoen.s:3455   .debug_str:00000000000006a9 .LASF139
     /tmp/cc6njoen.s:3301   .debug_str:0000000000000238 .LASF141
     /tmp/cc6njoen.s:149    .text:0000000000000088 .LFB39
     /tmp/cc6njoen.s:182    .text:00000000000000c8 .LFE39
     /tmp/cc6njoen.s:3117   .debug_loc:000000000000010a .LLST3
     /tmp/cc6njoen.s:166    .text:00000000000000a8 .LVL9
     /tmp/cc6njoen.s:169    .text:00000000000000b4 .LVL10
     /tmp/cc6njoen.s:3237   .debug_str:0000000000000046 .LASF142
     /tmp/cc6njoen.s:79     .text:0000000000000034 .LFB37
     /tmp/cc6njoen.s:133    .text:0000000000000088 .LFE37
     /tmp/cc6njoen.s:3135   .debug_loc:0000000000000156 .LLST1
     /tmp/cc6njoen.s:109    .text:0000000000000068 .LBB6
GAS LISTING /tmp/cc6njoen.s 			page 16


     /tmp/cc6njoen.s:119    .text:0000000000000074 .LBE6
     /tmp/cc6njoen.s:3149   .debug_loc:000000000000018f .LLST2
     /tmp/cc6njoen.s:116    .text:0000000000000074 .LVL7
     /tmp/cc6njoen.s:108    .text:0000000000000068 .LVL6
     /tmp/cc6njoen.s:3289   .debug_str:00000000000001cb .LASF143
     /tmp/cc6njoen.s:188    .text:00000000000000c8 .LFB34
     /tmp/cc6njoen.s:221    .text:0000000000000100 .LFE34
     /tmp/cc6njoen.s:3156   .debug_loc:00000000000001b2 .LLST4
     /tmp/cc6njoen.s:3176   .debug_loc:0000000000000200 .LLST5
     /tmp/cc6njoen.s:3190   .debug_loc:0000000000000239 .LLST6
     /tmp/cc6njoen.s:209    .text:00000000000000f0 .LVL14
     /tmp/cc6njoen.s:11     .text._ZN6Thread3runEv:0000000000000000 .LFB31
     /tmp/cc6njoen.s:30     .text._ZN6Thread3runEv:0000000000000018 .LFE31
     /tmp/cc6njoen.s:3413   .debug_str:000000000000056a .LASF144
     /tmp/cc6njoen.s:3259   .debug_str:00000000000000d7 .LASF146
     /tmp/cc6njoen.s:3281   .debug_str:000000000000018a .LASF145
     /tmp/cc6njoen.s:3247   .debug_str:0000000000000084 .LASF147
     /tmp/cc6njoen.s:3285   .debug_str:00000000000001a6 .LASF148
     /tmp/cc6njoen.s:3287   .debug_str:00000000000001bb .LASF149
     /tmp/cc6njoen.s:3443   .debug_str:0000000000000654 .LASF150
     /tmp/cc6njoen.s:3377   .debug_str:0000000000000491 .LASF151
     /tmp/cc6njoen.s:3555   .debug_str:0000000000000a94 .LASF152
     /tmp/cc6njoen.s:3255   .debug_str:00000000000000c0 .LASF153
     /tmp/cc6njoen.s:329    .text:000000000000017c .LVL21
     /tmp/cc6njoen.s:347    .text:00000000000001a8 .LVL22
     /tmp/cc6njoen.s:41     .text:0000000000000000 .LVL1
     /tmp/cc6njoen.s:69     .text:0000000000000030 .LVL3
     /tmp/cc6njoen.s:297    .text:0000000000000154 .LVL19
     /tmp/cc6njoen.s:232    .text:0000000000000100 .LVL15
     /tmp/cc6njoen.s:244    .text:0000000000000114 .LVL16
     /tmp/cc6njoen.s:152    .text:0000000000000088 .LVL8
     /tmp/cc6njoen.s:177    .text:00000000000000c0 .LVL11
     /tmp/cc6njoen.s:84     .text:0000000000000034 .LVL4
     /tmp/cc6njoen.s:106    .text:0000000000000060 .LVL5
     /tmp/cc6njoen.s:191    .text:00000000000000c8 .LVL12
     /tmp/cc6njoen.s:207    .text:00000000000000e8 .LVL13
     /tmp/cc6njoen.s:383    .debug_info:0000000000000000 .Ldebug_info0
     /tmp/cc6njoen.s:5      .text:0000000000000000 .Ltext0
     /tmp/cc6njoen.s:377    .text:00000000000001c0 .Letext0
     /tmp/cc6njoen.s:136    .gcc_except_table:0000000000000000 .LLSDA37

UNDEFINED SYMBOLS
_ZN3TCBD1Ev
__mem_free
__gxx_personality_v0
_ZdlPv
_Z11thread_makePP3TCBPFvPvES2_
_Z12thread_startP3TCB
_Z15thread_dispatchv
_Z10time_sleepm
